ARM GAS  C:\Users\linar\AppData\Local\Temp\ccRnbEs9.s 			page 1


   1              		.syntax unified
   2              		.cpu cortex-m3
   3              		.fpu softvfp
   4              		.eabi_attribute 20, 1
   5              		.eabi_attribute 21, 1
   6              		.eabi_attribute 23, 3
   7              		.eabi_attribute 24, 1
   8              		.eabi_attribute 25, 1
   9              		.eabi_attribute 26, 1
  10              		.eabi_attribute 30, 1
  11              		.eabi_attribute 34, 1
  12              		.eabi_attribute 18, 4
  13              		.thumb
  14              		.syntax unified
  15              		.file	"diskio.c"
  16              		.text
  17              	.Ltext0:
  18              		.cfi_sections	.debug_frame
  19              		.section	.text.disk_status,"ax",%progbits
  20              		.align	2
  21              		.global	disk_status
  22              		.thumb
  23              		.thumb_func
  24              		.type	disk_status, %function
  25              	disk_status:
  26              	.LFB63:
  27              		.file 1 "diskio.c"
   1:diskio.c      **** /* ========================================
   2:diskio.c      ****  *
   3:diskio.c      ****  * Copyright YOUR COMPANY, THE YEAR
   4:diskio.c      ****  * All Rights Reserved
   5:diskio.c      ****  * UNPUBLISHED, LICENSED SOFTWARE.
   6:diskio.c      ****  *
   7:diskio.c      ****  * CONFIDENTIAL AND PROPRIETARY INFORMATION
   8:diskio.c      ****  * WHICH IS THE PROPERTY OF your company.
   9:diskio.c      ****  *
  10:diskio.c      ****  * ========================================
  11:diskio.c      **** */
  12:diskio.c      **** #include "diskio.h"
  13:diskio.c      **** #include "flash.h"
  14:diskio.c      **** 
  15:diskio.c      **** #include <project.h>
  16:diskio.c      **** #include <cytypes.h>
  17:diskio.c      **** 
  18:diskio.c      **** static DSTATUS Stat = STA_NOINIT;
  19:diskio.c      **** 
  20:diskio.c      **** 
  21:diskio.c      **** DSTATUS disk_status(BYTE drv)
  22:diskio.c      **** {
  28              		.loc 1 22 0
  29              		.cfi_startproc
  30              		@ args = 0, pretend = 0, frame = 0
  31              		@ frame_needed = 0, uses_anonymous_args = 0
  32              		@ link register save eliminated.
  33              	.LVL0:
  23:diskio.c      ****     if (drv) return STA_NOINIT;
  34              		.loc 1 23 0
ARM GAS  C:\Users\linar\AppData\Local\Temp\ccRnbEs9.s 			page 2


  35 0000 10B9     		cbnz	r0, .L3
  24:diskio.c      **** 
  25:diskio.c      **** 	return Stat;
  36              		.loc 1 25 0
  37 0002 024B     		ldr	r3, .L4
  38 0004 1878     		ldrb	r0, [r3]	@ zero_extendqisi2
  39              	.LVL1:
  40 0006 7047     		bx	lr
  41              	.LVL2:
  42              	.L3:
  23:diskio.c      ****     if (drv) return STA_NOINIT;
  43              		.loc 1 23 0
  44 0008 0120     		movs	r0, #1
  45              	.LVL3:
  26:diskio.c      **** }
  46              		.loc 1 26 0
  47 000a 7047     		bx	lr
  48              	.L5:
  49              		.align	2
  50              	.L4:
  51 000c 00000000 		.word	.LANCHOR0
  52              		.cfi_endproc
  53              	.LFE63:
  54              		.size	disk_status, .-disk_status
  55              		.section	.text.disk_initialize,"ax",%progbits
  56              		.align	2
  57              		.global	disk_initialize
  58              		.thumb
  59              		.thumb_func
  60              		.type	disk_initialize, %function
  61              	disk_initialize:
  62              	.LFB64:
  27:diskio.c      **** 
  28:diskio.c      **** DSTATUS disk_initialize(BYTE drv)
  29:diskio.c      **** {
  63              		.loc 1 29 0
  64              		.cfi_startproc
  65              		@ args = 0, pretend = 0, frame = 0
  66              		@ frame_needed = 0, uses_anonymous_args = 0
  67              		@ link register save eliminated.
  68              	.LVL4:
  30:diskio.c      ****     DSTATUS s;
  31:diskio.c      ****     
  32:diskio.c      ****     if (drv) return RES_NOTRDY;
  69              		.loc 1 32 0
  70 0000 10B9     		cbnz	r0, .L8
  71              	.LVL5:
  33:diskio.c      ****     s = 0;
  34:diskio.c      ****     Stat = s;
  72              		.loc 1 34 0
  73 0002 024B     		ldr	r3, .L9
  74 0004 1870     		strb	r0, [r3]
  35:diskio.c      ****     
  36:diskio.c      ****     return s;
  75              		.loc 1 36 0
  76 0006 7047     		bx	lr
  77              	.LVL6:
ARM GAS  C:\Users\linar\AppData\Local\Temp\ccRnbEs9.s 			page 3


  78              	.L8:
  32:diskio.c      ****     s = 0;
  79              		.loc 1 32 0
  80 0008 0320     		movs	r0, #3
  81              	.LVL7:
  37:diskio.c      **** }
  82              		.loc 1 37 0
  83 000a 7047     		bx	lr
  84              	.L10:
  85              		.align	2
  86              	.L9:
  87 000c 00000000 		.word	.LANCHOR0
  88              		.cfi_endproc
  89              	.LFE64:
  90              		.size	disk_initialize, .-disk_initialize
  91              		.section	.text.disk_read,"ax",%progbits
  92              		.align	2
  93              		.global	disk_read
  94              		.thumb
  95              		.thumb_func
  96              		.type	disk_read, %function
  97              	disk_read:
  98              	.LFB65:
  38:diskio.c      **** 
  39:diskio.c      **** DRESULT disk_read(BYTE drv, BYTE* buff, DWORD sector, UINT count)
  40:diskio.c      **** {
  99              		.loc 1 40 0
 100              		.cfi_startproc
 101              		@ args = 0, pretend = 0, frame = 0
 102              		@ frame_needed = 0, uses_anonymous_args = 0
 103              	.LVL8:
 104 0000 70B5     		push	{r4, r5, r6, lr}
 105              		.cfi_def_cfa_offset 16
 106              		.cfi_offset 4, -16
 107              		.cfi_offset 5, -12
 108              		.cfi_offset 6, -8
 109              		.cfi_offset 14, -4
 110 0002 0D46     		mov	r5, r1
 111 0004 1446     		mov	r4, r2
 112 0006 1E46     		mov	r6, r3
  41:diskio.c      ****     if (disk_status(drv) & STA_NOINIT) return RES_NOTRDY;
 113              		.loc 1 41 0
 114 0008 FFF7FEFF 		bl	disk_status
 115              	.LVL9:
 116 000c 10F0010F 		tst	r0, #1
 117 0010 0BD1     		bne	.L14
  42:diskio.c      ****     uint32 address = sector * 512;
 118              		.loc 1 42 0
 119 0012 6402     		lsls	r4, r4, #9
 120              	.LVL10:
 121              	.L13:
  43:diskio.c      ****     uint8 disk_status = ERROR;
  44:diskio.c      ****    
  45:diskio.c      ****     do
  46:diskio.c      ****     {
  47:diskio.c      ****         disk_status = readData(address, buff, 512 * count);
 122              		.loc 1 47 0 discriminator 1
ARM GAS  C:\Users\linar\AppData\Local\Temp\ccRnbEs9.s 			page 4


 123 0014 7202     		lsls	r2, r6, #9
 124 0016 2946     		mov	r1, r5
 125 0018 2046     		mov	r0, r4
 126 001a FFF7FEFF 		bl	readData
 127              	.LVL11:
  48:diskio.c      ****     }while(disk_status == BUSY);
 128              		.loc 1 48 0 discriminator 1
 129 001e 0328     		cmp	r0, #3
 130 0020 F8D0     		beq	.L13
  49:diskio.c      ****     
  50:diskio.c      ****     return disk_status ? RES_ERROR : RES_OK;
 131              		.loc 1 50 0
 132 0022 0030     		adds	r0, r0, #0
 133              	.LVL12:
 134 0024 18BF     		it	ne
 135 0026 0120     		movne	r0, #1
 136 0028 70BD     		pop	{r4, r5, r6, pc}
 137              	.LVL13:
 138              	.L14:
  41:diskio.c      ****     uint32 address = sector * 512;
 139              		.loc 1 41 0
 140 002a 0320     		movs	r0, #3
  51:diskio.c      **** }
 141              		.loc 1 51 0
 142 002c 70BD     		pop	{r4, r5, r6, pc}
 143              		.cfi_endproc
 144              	.LFE65:
 145              		.size	disk_read, .-disk_read
 146 002e 00BF     		.section	.text.disk_write,"ax",%progbits
 147              		.align	2
 148              		.global	disk_write
 149              		.thumb
 150              		.thumb_func
 151              		.type	disk_write, %function
 152              	disk_write:
 153              	.LFB66:
  52:diskio.c      **** 
  53:diskio.c      **** DRESULT disk_write(BYTE drv, const BYTE* buff, DWORD sector, UINT count)
  54:diskio.c      **** {
 154              		.loc 1 54 0
 155              		.cfi_startproc
 156              		@ args = 0, pretend = 0, frame = 520
 157              		@ frame_needed = 0, uses_anonymous_args = 0
 158              	.LVL14:
 159 0000 70B5     		push	{r4, r5, r6, lr}
 160              		.cfi_def_cfa_offset 16
 161              		.cfi_offset 4, -16
 162              		.cfi_offset 5, -12
 163              		.cfi_offset 6, -8
 164              		.cfi_offset 14, -4
 165 0002 ADF5027D 		sub	sp, sp, #520
 166              		.cfi_def_cfa_offset 536
 167 0006 0E46     		mov	r6, r1
 168 0008 1546     		mov	r5, r2
 169 000a 1C46     		mov	r4, r3
  55:diskio.c      ****     if (disk_status(drv) & STA_NOINIT) return RES_NOTRDY;
 170              		.loc 1 55 0
ARM GAS  C:\Users\linar\AppData\Local\Temp\ccRnbEs9.s 			page 5


 171 000c FFF7FEFF 		bl	disk_status
 172              	.LVL15:
 173 0010 10F0010F 		tst	r0, #1
 174 0014 28D1     		bne	.L21
  56:diskio.c      **** 
  57:diskio.c      ****     uint32 address = sector * 512;
 175              		.loc 1 57 0
 176 0016 6D02     		lsls	r5, r5, #9
 177              	.LVL16:
  58:diskio.c      ****     uint8 writeCnt = 2 * count;
 178              		.loc 1 58 0
 179 0018 6400     		lsls	r4, r4, #1
 180              	.LVL17:
 181 001a E4B2     		uxtb	r4, r4
 182              	.LVL18:
  59:diskio.c      ****     uint8 disk_status = ERROR;
  60:diskio.c      ****     
  61:diskio.c      ****     uint8 recvBuff[512];
  62:diskio.c      ****     memset(recvBuff, 0, 512);
 183              		.loc 1 62 0
 184 001c 4FF40072 		mov	r2, #512
 185 0020 0021     		movs	r1, #0
 186 0022 02A8     		add	r0, sp, #8
 187 0024 FFF7FEFF 		bl	memset
 188              	.LVL19:
  63:diskio.c      ****     uint8 sendbuff[6];
  64:diskio.c      ****     memset(sendbuff, 0, 6);
 189              		.loc 1 64 0
 190 0028 0023     		movs	r3, #0
 191 002a 0093     		str	r3, [sp]
 192 002c ADF80430 		strh	r3, [sp, #4]	@ movhi
 193              	.LVL20:
 194              	.L18:
  65:diskio.c      ****     uint8 cr = 13;
  66:diskio.c      ****     uint8 nl = 10;
  67:diskio.c      ****     
  68:diskio.c      ****     do
  69:diskio.c      ****     {
  70:diskio.c      ****         do
  71:diskio.c      ****         {
  72:diskio.c      ****             disk_status = pageProgram(address, buff, 256);
 195              		.loc 1 72 0 discriminator 1
 196 0030 4FF48072 		mov	r2, #256
 197 0034 3146     		mov	r1, r6
 198 0036 2846     		mov	r0, r5
 199 0038 FFF7FEFF 		bl	pageProgram
 200              	.LVL21:
  73:diskio.c      ****         }while(disk_status == BUSY);
 201              		.loc 1 73 0 discriminator 1
 202 003c 0328     		cmp	r0, #3
 203 003e F7D0     		beq	.L18
  74:diskio.c      ****         address += 256;
 204              		.loc 1 74 0
 205 0040 05F58075 		add	r5, r5, #256
 206              	.LVL22:
  75:diskio.c      ****         buff += 256;
 207              		.loc 1 75 0
ARM GAS  C:\Users\linar\AppData\Local\Temp\ccRnbEs9.s 			page 6


 208 0044 06F58076 		add	r6, r6, #256
 209              	.LVL23:
  76:diskio.c      ****     }while(--writeCnt);
 210              		.loc 1 76 0
 211 0048 601E     		subs	r0, r4, #1
 212              	.LVL24:
 213 004a 10F0FF04 		ands	r4, r0, #255
 214 004e EFD1     		bne	.L18
 215              	.LVL25:
 216              	.L20:
  77:diskio.c      ****     
  78:diskio.c      ****     while(disk_read(0, recvBuff, 0, 1) == 3){}
 217              		.loc 1 78 0 discriminator 1
 218 0050 0123     		movs	r3, #1
 219 0052 0022     		movs	r2, #0
 220 0054 02A9     		add	r1, sp, #8
 221 0056 1046     		mov	r0, r2
 222 0058 FFF7FEFF 		bl	disk_read
 223              	.LVL26:
 224 005c 0328     		cmp	r0, #3
 225 005e F7D0     		beq	.L20
  79:diskio.c      **** /*
  80:diskio.c      ****     for(int i = 0; i < 512; i++)
  81:diskio.c      ****     {
  82:diskio.c      ****         if( !(i % 15) ) 
  83:diskio.c      ****         {
  84:diskio.c      ****             USBUART_1_PutData(&nl, 1);
  85:diskio.c      ****             CyDelay(10);
  86:diskio.c      ****             USBUART_1_PutData(&cr, 1);
  87:diskio.c      ****             CyDelay(10);
  88:diskio.c      ****         }  
  89:diskio.c      ****         sprintf((char*)sendbuff, "%x ", recvBuff[i]);
  90:diskio.c      ****         //sprintf((char*)sendbuff, "%d ", rand);
  91:diskio.c      ****         USBUART_1_PutData(sendbuff, 6);
  92:diskio.c      ****         memset(sendbuff, 0, 6);
  93:diskio.c      ****         CyDelay(10); 
  94:diskio.c      ****     }
  95:diskio.c      ****  */   
  96:diskio.c      ****     return writeCnt ? RES_ERROR : RES_OK;
 226              		.loc 1 96 0
 227 0060 201C     		adds	r0, r4, #0
 228 0062 18BF     		it	ne
 229 0064 0120     		movne	r0, #1
 230 0066 00E0     		b	.L17
 231              	.LVL27:
 232              	.L21:
  55:diskio.c      **** 
 233              		.loc 1 55 0
 234 0068 0320     		movs	r0, #3
 235              	.LVL28:
 236              	.L17:
  97:diskio.c      **** }
 237              		.loc 1 97 0
 238 006a 0DF5027D 		add	sp, sp, #520
 239              		.cfi_def_cfa_offset 16
 240              		@ sp needed
 241 006e 70BD     		pop	{r4, r5, r6, pc}
ARM GAS  C:\Users\linar\AppData\Local\Temp\ccRnbEs9.s 			page 7


 242              		.cfi_endproc
 243              	.LFE66:
 244              		.size	disk_write, .-disk_write
 245              		.section	.text.disk_ioctl,"ax",%progbits
 246              		.align	2
 247              		.global	disk_ioctl
 248              		.thumb
 249              		.thumb_func
 250              		.type	disk_ioctl, %function
 251              	disk_ioctl:
 252              	.LFB67:
  98:diskio.c      **** 
  99:diskio.c      **** DRESULT disk_ioctl(BYTE pdrv, BYTE cmd, void* buff)
 100:diskio.c      **** { 
 253              		.loc 1 100 0
 254              		.cfi_startproc
 255              		@ args = 0, pretend = 0, frame = 0
 256              		@ frame_needed = 0, uses_anonymous_args = 0
 257              		@ link register save eliminated.
 258              	.LVL29:
 101:diskio.c      ****     DRESULT res;
 102:diskio.c      ****     DWORD blockCnt = NUM_OF_PAGES / 2;
 103:diskio.c      ****     
 104:diskio.c      ****     switch(cmd)
 259              		.loc 1 104 0
 260 0000 0129     		cmp	r1, #1
 261 0002 03D0     		beq	.L25
 262 0004 41B1     		cbz	r1, .L24
 263 0006 0329     		cmp	r1, #3
 264 0008 05D1     		bne	.L28
 265 000a 7047     		bx	lr
 266              	.L25:
 105:diskio.c      ****     {
 106:diskio.c      ****         case CTRL_SYNC:
 107:diskio.c      ****         break;
 108:diskio.c      ****         
 109:diskio.c      ****         case GET_SECTOR_COUNT:
 110:diskio.c      ****             *(DWORD*)buff = blockCnt;
 267              		.loc 1 110 0
 268 000c 4FF48053 		mov	r3, #4096
 269 0010 1360     		str	r3, [r2]
 270              	.LVL30:
 111:diskio.c      ****             res = RES_OK;
 271              		.loc 1 111 0
 272 0012 0020     		movs	r0, #0
 273              	.LVL31:
 112:diskio.c      ****         break;
 274              		.loc 1 112 0
 275 0014 7047     		bx	lr
 276              	.LVL32:
 277              	.L28:
 113:diskio.c      ****         
 114:diskio.c      ****         case GET_BLOCK_SIZE:
 115:diskio.c      ****         break;
 116:diskio.c      ****         
 117:diskio.c      ****         default:
 118:diskio.c      ****             res = RES_PARERR;
ARM GAS  C:\Users\linar\AppData\Local\Temp\ccRnbEs9.s 			page 8


 278              		.loc 1 118 0
 279 0016 0420     		movs	r0, #4
 280              	.LVL33:
 281              	.L24:
 119:diskio.c      ****     }
 120:diskio.c      ****     
 121:diskio.c      ****     return res;
 122:diskio.c      **** }
 282              		.loc 1 122 0
 283 0018 7047     		bx	lr
 284              		.cfi_endproc
 285              	.LFE67:
 286              		.size	disk_ioctl, .-disk_ioctl
 287 001a 00BF     		.section	.text.disk_timerproc,"ax",%progbits
 288              		.align	2
 289              		.global	disk_timerproc
 290              		.thumb
 291              		.thumb_func
 292              		.type	disk_timerproc, %function
 293              	disk_timerproc:
 294              	.LFB68:
 123:diskio.c      **** 
 124:diskio.c      **** void disk_timerproc(void)
 125:diskio.c      **** {
 295              		.loc 1 125 0
 296              		.cfi_startproc
 297              		@ args = 0, pretend = 0, frame = 0
 298              		@ frame_needed = 0, uses_anonymous_args = 0
 299              		@ link register save eliminated.
 300 0000 7047     		bx	lr
 301              		.cfi_endproc
 302              	.LFE68:
 303              		.size	disk_timerproc, .-disk_timerproc
 304 0002 00BF     		.data
 305              		.set	.LANCHOR0,. + 0
 306              		.type	Stat, %object
 307              		.size	Stat, 1
 308              	Stat:
 309 0000 01       		.byte	1
 310              		.text
 311              	.Letext0:
 312              		.file 2 "integer.h"
 313              		.file 3 "diskio.h"
 314              		.file 4 "c:\\program files (x86)\\cypress\\psoc creator\\4.4\\psoc creator\\import\\gnu\\arm\\5.4.
 315              		.file 5 "c:\\program files (x86)\\cypress\\psoc creator\\4.4\\psoc creator\\import\\gnu\\arm\\5.4.
 316              		.file 6 "Generated_Source\\PSoC5/cytypes.h"
 317              		.file 7 "flash.h"
 318              		.file 8 "Generated_Source\\PSoC5/core_cm3.h"