ARM GAS  C:\Users\linar\AppData\Local\Temp\ccAaFYxm.s 			page 1


   1              		.syntax unified
   2              		.cpu cortex-m3
   3              		.fpu softvfp
   4              		.eabi_attribute 20, 1
   5              		.eabi_attribute 21, 1
   6              		.eabi_attribute 23, 3
   7              		.eabi_attribute 24, 1
   8              		.eabi_attribute 25, 1
   9              		.eabi_attribute 26, 1
  10              		.eabi_attribute 30, 1
  11              		.eabi_attribute 34, 1
  12              		.eabi_attribute 18, 4
  13              		.thumb
  14              		.syntax unified
  15              		.file	"ff.c"
  16              		.text
  17              	.Ltext0:
  18              		.cfi_sections	.debug_frame
  19              		.section	.text.mem_cpy,"ax",%progbits
  20              		.align	2
  21              		.thumb
  22              		.thumb_func
  23              		.type	mem_cpy, %function
  24              	mem_cpy:
  25              	.LFB0:
  26              		.file 1 "ff.c"
   1:ff.c          **** /*----------------------------------------------------------------------------/
   2:ff.c          **** /  FatFs - FAT file system module  R0.11a                (C)ChaN, 2015        /
   3:ff.c          **** /-----------------------------------------------------------------------------/
   4:ff.c          **** / FatFs module is a free software that opened under license policy of
   5:ff.c          **** / following conditions.
   6:ff.c          **** /
   7:ff.c          **** / Copyright (C) 2015, ChaN, all right reserved.
   8:ff.c          **** /
   9:ff.c          **** / 1. Redistributions of source code must retain the above copyright notice,
  10:ff.c          **** /    this condition and the following disclaimer.
  11:ff.c          **** /
  12:ff.c          **** / This software is provided by the copyright holder and contributors "AS IS"
  13:ff.c          **** / and any warranties related to this software are DISCLAIMED.
  14:ff.c          **** / The copyright owner or contributors be NOT LIABLE for any damages caused
  15:ff.c          **** / by use of this software.
  16:ff.c          **** /----------------------------------------------------------------------------*/
  17:ff.c          **** 
  18:ff.c          **** 
  19:ff.c          **** #include "ff.h"			/* Declarations of FatFs API */
  20:ff.c          **** #include "diskio.h"		/* Declarations of disk I/O functions */
  21:ff.c          **** 
  22:ff.c          **** 
  23:ff.c          **** /*--------------------------------------------------------------------------
  24:ff.c          **** 
  25:ff.c          ****    Module Private Definitions
  26:ff.c          **** 
  27:ff.c          **** ---------------------------------------------------------------------------*/
  28:ff.c          **** 
  29:ff.c          **** #if _FATFS != 64180	/* Revision ID */
  30:ff.c          **** #error Wrong include file (ff.h).
  31:ff.c          **** #endif
ARM GAS  C:\Users\linar\AppData\Local\Temp\ccAaFYxm.s 			page 2


  32:ff.c          **** 
  33:ff.c          **** 
  34:ff.c          **** /* Reentrancy related */
  35:ff.c          **** #if _FS_REENTRANT
  36:ff.c          **** #if _USE_LFN == 1
  37:ff.c          **** #error Static LFN work area cannot be used at thread-safe configuration
  38:ff.c          **** #endif
  39:ff.c          **** #define	ENTER_FF(fs)		{ if (!lock_fs(fs)) return FR_TIMEOUT; }
  40:ff.c          **** #define	LEAVE_FF(fs, res)	{ unlock_fs(fs, res); return res; }
  41:ff.c          **** #else
  42:ff.c          **** #define	ENTER_FF(fs)
  43:ff.c          **** #define LEAVE_FF(fs, res)	return res
  44:ff.c          **** #endif
  45:ff.c          **** 
  46:ff.c          **** #define	ABORT(fs, res)		{ fp->err = (BYTE)(res); LEAVE_FF(fs, res); }
  47:ff.c          **** 
  48:ff.c          **** 
  49:ff.c          **** /* Definitions of sector size */
  50:ff.c          **** #if (_MAX_SS < _MIN_SS) || (_MAX_SS != 512 && _MAX_SS != 1024 && _MAX_SS != 2048 && _MAX_SS != 4096
  51:ff.c          **** #error Wrong sector size configuration
  52:ff.c          **** #endif
  53:ff.c          **** #if _MAX_SS == _MIN_SS
  54:ff.c          **** #define	SS(fs)	((UINT)_MAX_SS)	/* Fixed sector size */
  55:ff.c          **** #else
  56:ff.c          **** #define	SS(fs)	((fs)->ssize)	/* Variable sector size */
  57:ff.c          **** #endif
  58:ff.c          **** 
  59:ff.c          **** 
  60:ff.c          **** /* Timestamp feature */
  61:ff.c          **** #if _FS_NORTC == 1
  62:ff.c          **** #if _NORTC_YEAR < 1980 || _NORTC_YEAR > 2107 || _NORTC_MON < 1 || _NORTC_MON > 12 || _NORTC_MDAY < 
  63:ff.c          **** #error Invalid _FS_NORTC settings
  64:ff.c          **** #endif
  65:ff.c          **** #define GET_FATTIME()	((DWORD)(_NORTC_YEAR - 1980) << 25 | (DWORD)_NORTC_MON << 21 | (DWORD)_NORTC_
  66:ff.c          **** #else
  67:ff.c          **** #define GET_FATTIME()	get_fattime()
  68:ff.c          **** #endif
  69:ff.c          **** 
  70:ff.c          **** 
  71:ff.c          **** /* File access control feature */
  72:ff.c          **** #if _FS_LOCK
  73:ff.c          **** #if _FS_READONLY
  74:ff.c          **** #error _FS_LOCK must be 0 at read-only configuration
  75:ff.c          **** #endif
  76:ff.c          **** typedef struct {
  77:ff.c          **** 	FATFS *fs;		/* Object ID 1, volume (NULL:blank entry) */
  78:ff.c          **** 	DWORD clu;		/* Object ID 2, directory (0:root) */
  79:ff.c          **** 	WORD idx;		/* Object ID 3, directory index */
  80:ff.c          **** 	WORD ctr;		/* Object open counter, 0:none, 0x01..0xFF:read mode open count, 0x100:write mode */
  81:ff.c          **** } FILESEM;
  82:ff.c          **** #endif
  83:ff.c          **** 
  84:ff.c          **** 
  85:ff.c          **** 
  86:ff.c          **** /* DBCS code ranges and SBCS upper conversion tables */
  87:ff.c          **** 
  88:ff.c          **** #if _CODE_PAGE == 932	/* Japanese Shift-JIS */
ARM GAS  C:\Users\linar\AppData\Local\Temp\ccAaFYxm.s 			page 3


  89:ff.c          **** #define _DF1S	0x81	/* DBC 1st byte range 1 start */
  90:ff.c          **** #define _DF1E	0x9F	/* DBC 1st byte range 1 end */
  91:ff.c          **** #define _DF2S	0xE0	/* DBC 1st byte range 2 start */
  92:ff.c          **** #define _DF2E	0xFC	/* DBC 1st byte range 2 end */
  93:ff.c          **** #define _DS1S	0x40	/* DBC 2nd byte range 1 start */
  94:ff.c          **** #define _DS1E	0x7E	/* DBC 2nd byte range 1 end */
  95:ff.c          **** #define _DS2S	0x80	/* DBC 2nd byte range 2 start */
  96:ff.c          **** #define _DS2E	0xFC	/* DBC 2nd byte range 2 end */
  97:ff.c          **** 
  98:ff.c          **** #elif _CODE_PAGE == 936	/* Simplified Chinese GBK */
  99:ff.c          **** #define _DF1S	0x81
 100:ff.c          **** #define _DF1E	0xFE
 101:ff.c          **** #define _DS1S	0x40
 102:ff.c          **** #define _DS1E	0x7E
 103:ff.c          **** #define _DS2S	0x80
 104:ff.c          **** #define _DS2E	0xFE
 105:ff.c          **** 
 106:ff.c          **** #elif _CODE_PAGE == 949	/* Korean */
 107:ff.c          **** #define _DF1S	0x81
 108:ff.c          **** #define _DF1E	0xFE
 109:ff.c          **** #define _DS1S	0x41
 110:ff.c          **** #define _DS1E	0x5A
 111:ff.c          **** #define _DS2S	0x61
 112:ff.c          **** #define _DS2E	0x7A
 113:ff.c          **** #define _DS3S	0x81
 114:ff.c          **** #define _DS3E	0xFE
 115:ff.c          **** 
 116:ff.c          **** #elif _CODE_PAGE == 950	/* Traditional Chinese Big5 */
 117:ff.c          **** #define _DF1S	0x81
 118:ff.c          **** #define _DF1E	0xFE
 119:ff.c          **** #define _DS1S	0x40
 120:ff.c          **** #define _DS1E	0x7E
 121:ff.c          **** #define _DS2S	0xA1
 122:ff.c          **** #define _DS2E	0xFE
 123:ff.c          **** 
 124:ff.c          **** #elif _CODE_PAGE == 437	/* U.S. */
 125:ff.c          **** #define _DF1S	0
 126:ff.c          **** #define _EXCVT {0x80,0x9A,0x45,0x41,0x8E,0x41,0x8F,0x80,0x45,0x45,0x45,0x49,0x49,0x49,0x8E,0x8F, \
 127:ff.c          **** 				0x90,0x92,0x92,0x4F,0x99,0x4F,0x55,0x55,0x59,0x99,0x9A,0x9B,0x9C,0x9D,0x9E,0x9F, \
 128:ff.c          **** 				0x41,0x49,0x4F,0x55,0xA5,0xA5,0xA6,0xA7,0xA8,0xA9,0xAA,0xAB,0xAC,0xAD,0xAE,0xAF, \
 129:ff.c          **** 				0xB0,0xB1,0xB2,0xB3,0xB4,0xB5,0xB6,0xB7,0xB8,0xB9,0xBA,0xBB,0xBC,0xBD,0xBE,0xBF, \
 130:ff.c          **** 				0xC0,0xC1,0xC2,0xC3,0xC4,0xC5,0xC6,0xC7,0xC8,0xC9,0xCA,0xCB,0xCC,0xCD,0xCE,0xCF, \
 131:ff.c          **** 				0xD0,0xD1,0xD2,0xD3,0xD4,0xD5,0xD6,0xD7,0xD8,0xD9,0xDA,0xDB,0xDC,0xDD,0xDE,0xDF, \
 132:ff.c          **** 				0xE0,0xE1,0xE2,0xE3,0xE4,0xE5,0xE6,0xE7,0xE8,0xE9,0xEA,0xEB,0xEC,0xED,0xEE,0xEF, \
 133:ff.c          **** 				0xF0,0xF1,0xF2,0xF3,0xF4,0xF5,0xF6,0xF7,0xF8,0xF9,0xFA,0xFB,0xFC,0xFD,0xFE,0xFF}
 134:ff.c          **** 
 135:ff.c          **** #elif _CODE_PAGE == 720	/* Arabic */
 136:ff.c          **** #define _DF1S	0
 137:ff.c          **** #define _EXCVT {0x80,0x81,0x82,0x83,0x84,0x85,0x86,0x87,0x88,0x89,0x8A,0x8B,0x8C,0x8D,0x8E,0x8F, \
 138:ff.c          **** 				0x90,0x91,0x92,0x93,0x94,0x95,0x96,0x97,0x98,0x99,0x9A,0x9B,0x9C,0x9D,0x9E,0x9F, \
 139:ff.c          **** 				0xA0,0xA1,0xA2,0xA3,0xA4,0xA5,0xA6,0xA7,0xA8,0xA9,0xAA,0xAB,0xAC,0xAD,0xAE,0xAF, \
 140:ff.c          **** 				0xB0,0xB1,0xB2,0xB3,0xB4,0xB5,0xB6,0xB7,0xB8,0xB9,0xBA,0xBB,0xBC,0xBD,0xBE,0xBF, \
 141:ff.c          **** 				0xC0,0xC1,0xC2,0xC3,0xC4,0xC5,0xC6,0xC7,0xC8,0xC9,0xCA,0xCB,0xCC,0xCD,0xCE,0xCF, \
 142:ff.c          **** 				0xD0,0xD1,0xD2,0xD3,0xD4,0xD5,0xD6,0xD7,0xD8,0xD9,0xDA,0xDB,0xDC,0xDD,0xDE,0xDF, \
 143:ff.c          **** 				0xE0,0xE1,0xE2,0xE3,0xE4,0xE5,0xE6,0xE7,0xE8,0xE9,0xEA,0xEB,0xEC,0xED,0xEE,0xEF, \
 144:ff.c          **** 				0xF0,0xF1,0xF2,0xF3,0xF4,0xF5,0xF6,0xF7,0xF8,0xF9,0xFA,0xFB,0xFC,0xFD,0xFE,0xFF}
 145:ff.c          **** 
ARM GAS  C:\Users\linar\AppData\Local\Temp\ccAaFYxm.s 			page 4


 146:ff.c          **** #elif _CODE_PAGE == 737	/* Greek */
 147:ff.c          **** #define _DF1S	0
 148:ff.c          **** #define _EXCVT {0x80,0x81,0x82,0x83,0x84,0x85,0x86,0x87,0x88,0x89,0x8A,0x8B,0x8C,0x8D,0x8E,0x8F, \
 149:ff.c          **** 				0x90,0x92,0x92,0x93,0x94,0x95,0x96,0x97,0x80,0x81,0x82,0x83,0x84,0x85,0x86,0x87, \
 150:ff.c          **** 				0x88,0x89,0x8A,0x8B,0x8C,0x8D,0x8E,0x8F,0x90,0x91,0xAA,0x92,0x93,0x94,0x95,0x96, \
 151:ff.c          **** 				0xB0,0xB1,0xB2,0xB3,0xB4,0xB5,0xB6,0xB7,0xB8,0xB9,0xBA,0xBB,0xBC,0xBD,0xBE,0xBF, \
 152:ff.c          **** 				0xC0,0xC1,0xC2,0xC3,0xC4,0xC5,0xC6,0xC7,0xC8,0xC9,0xCA,0xCB,0xCC,0xCD,0xCE,0xCF, \
 153:ff.c          **** 				0xD0,0xD1,0xD2,0xD3,0xD4,0xD5,0xD6,0xD7,0xD8,0xD9,0xDA,0xDB,0xDC,0xDD,0xDE,0xDF, \
 154:ff.c          **** 				0x97,0xEA,0xEB,0xEC,0xE4,0xED,0xEE,0xEF,0xF5,0xF0,0xEA,0xEB,0xEC,0xED,0xEE,0xEF, \
 155:ff.c          **** 				0xF0,0xF1,0xF2,0xF3,0xF4,0xF5,0xF6,0xF7,0xF8,0xF9,0xFA,0xFB,0xFC,0xFD,0xFE,0xFF}
 156:ff.c          **** 
 157:ff.c          **** #elif _CODE_PAGE == 771	/* KBL */
 158:ff.c          **** #define _DF1S	0
 159:ff.c          **** #define _EXCVT {0x80,0x81,0x82,0x83,0x84,0x85,0x86,0x87,0x88,0x89,0x8A,0x8B,0x8C,0x8D,0x8E,0x8F, \
 160:ff.c          **** 				0x90,0x91,0x92,0x93,0x94,0x95,0x96,0x97,0x98,0x99,0x9A,0x9B,0x9C,0x9D,0x9E,0x9F, \
 161:ff.c          **** 				0x80,0x81,0x82,0x83,0x84,0x85,0x86,0x87,0x88,0x89,0x8A,0x8B,0x8C,0x8D,0x8E,0x8F, \
 162:ff.c          **** 				0xB0,0xB1,0xB2,0xB3,0xB4,0xB5,0xB6,0xB7,0xB8,0xB9,0xBA,0xBB,0xBC,0xBD,0xBE,0xBF, \
 163:ff.c          **** 				0xC0,0xC1,0xC2,0xC3,0xC4,0xC5,0xC6,0xC7,0xC8,0xC9,0xCA,0xCB,0xCC,0xCD,0xCE,0xCF, \
 164:ff.c          **** 				0xD0,0xD1,0xD2,0xD3,0xD4,0xD5,0xD6,0xD7,0xD8,0xD9,0xDA,0xDB,0xDC,0xDC,0xDE,0xDE, \
 165:ff.c          **** 				0x90,0x91,0x92,0x93,0x94,0x95,0x96,0x97,0x98,0x99,0x9A,0x9B,0x9C,0x9D,0x9E,0x9F, \
 166:ff.c          **** 				0xF0,0xF0,0xF2,0xF2,0xF4,0xF4,0xF6,0xF6,0xF8,0xF8,0xFA,0xFA,0xFC,0xFC,0xFE,0xFF}
 167:ff.c          **** 
 168:ff.c          **** #elif _CODE_PAGE == 775	/* Baltic */
 169:ff.c          **** #define _DF1S	0
 170:ff.c          **** #define _EXCVT {0x80,0x9A,0x91,0xA0,0x8E,0x95,0x8F,0x80,0xAD,0xED,0x8A,0x8A,0xA1,0x8D,0x8E,0x8F, \
 171:ff.c          **** 				0x90,0x92,0x92,0xE2,0x99,0x95,0x96,0x97,0x97,0x99,0x9A,0x9D,0x9C,0x9D,0x9E,0x9F, \
 172:ff.c          **** 				0xA0,0xA1,0xE0,0xA3,0xA3,0xA5,0xA6,0xA7,0xA8,0xA9,0xAA,0xAB,0xAC,0xAD,0xAE,0xAF, \
 173:ff.c          **** 				0xB0,0xB1,0xB2,0xB3,0xB4,0xB5,0xB6,0xB7,0xB8,0xB9,0xBA,0xBB,0xBC,0xBD,0xBE,0xBF, \
 174:ff.c          **** 				0xC0,0xC1,0xC2,0xC3,0xC4,0xC5,0xC6,0xC7,0xC8,0xC9,0xCA,0xCB,0xCC,0xCD,0xCE,0xCF, \
 175:ff.c          **** 				0xB5,0xB6,0xB7,0xB8,0xBD,0xBE,0xC6,0xC7,0xA5,0xD9,0xDA,0xDB,0xDC,0xDD,0xDE,0xDF, \
 176:ff.c          **** 				0xE0,0xE1,0xE2,0xE3,0xE5,0xE5,0xE6,0xE3,0xE8,0xE8,0xEA,0xEA,0xEE,0xED,0xEE,0xEF, \
 177:ff.c          **** 				0xF0,0xF1,0xF2,0xF3,0xF4,0xF5,0xF6,0xF7,0xF8,0xF9,0xFA,0xFB,0xFC,0xFD,0xFE,0xFF}
 178:ff.c          **** 
 179:ff.c          **** #elif _CODE_PAGE == 850	/* Latin 1 */
 180:ff.c          **** #define _DF1S	0
 181:ff.c          **** #define _EXCVT {0x43,0x55,0x45,0x41,0x41,0x41,0x41,0x43,0x45,0x45,0x45,0x49,0x49,0x49,0x41,0x41, \
 182:ff.c          **** 				0x45,0x92,0x92,0x4F,0x4F,0x4F,0x55,0x55,0x59,0x4F,0x55,0x4F,0x9C,0x4F,0x9E,0x9F, \
 183:ff.c          **** 				0x41,0x49,0x4F,0x55,0xA5,0xA5,0xA6,0xA7,0xA8,0xA9,0xAA,0xAB,0xAC,0xAD,0xAE,0xAF, \
 184:ff.c          **** 				0xB0,0xB1,0xB2,0xB3,0xB4,0x41,0x41,0x41,0xB8,0xB9,0xBA,0xBB,0xBC,0xBD,0xBE,0xBF, \
 185:ff.c          **** 				0xC0,0xC1,0xC2,0xC3,0xC4,0xC5,0x41,0x41,0xC8,0xC9,0xCA,0xCB,0xCC,0xCD,0xCE,0xCF, \
 186:ff.c          **** 				0xD1,0xD1,0x45,0x45,0x45,0x49,0x49,0x49,0x49,0xD9,0xDA,0xDB,0xDC,0xDD,0x49,0xDF, \
 187:ff.c          **** 				0x4F,0xE1,0x4F,0x4F,0x4F,0x4F,0xE6,0xE8,0xE8,0x55,0x55,0x55,0x59,0x59,0xEE,0xEF, \
 188:ff.c          **** 				0xF0,0xF1,0xF2,0xF3,0xF4,0xF5,0xF6,0xF7,0xF8,0xF9,0xFA,0xFB,0xFC,0xFD,0xFE,0xFF}
 189:ff.c          **** 
 190:ff.c          **** #elif _CODE_PAGE == 852	/* Latin 2 */
 191:ff.c          **** #define _DF1S	0
 192:ff.c          **** #define _EXCVT {0x80,0x9A,0x90,0xB6,0x8E,0xDE,0x8F,0x80,0x9D,0xD3,0x8A,0x8A,0xD7,0x8D,0x8E,0x8F, \
 193:ff.c          **** 				0x90,0x91,0x91,0xE2,0x99,0x95,0x95,0x97,0x97,0x99,0x9A,0x9B,0x9B,0x9D,0x9E,0xAC, \
 194:ff.c          **** 				0xB5,0xD6,0xE0,0xE9,0xA4,0xA4,0xA6,0xA6,0xA8,0xA8,0xAA,0x8D,0xAC,0xB8,0xAE,0xAF, \
 195:ff.c          **** 				0xB0,0xB1,0xB2,0xB3,0xB4,0xB5,0xB6,0xB7,0xB8,0xB9,0xBA,0xBB,0xBC,0xBD,0xBD,0xBF, \
 196:ff.c          **** 				0xC0,0xC1,0xC2,0xC3,0xC4,0xC5,0xC6,0xC6,0xC8,0xC9,0xCA,0xCB,0xCC,0xCD,0xCE,0xCF, \
 197:ff.c          **** 				0xD1,0xD1,0xD2,0xD3,0xD2,0xD5,0xD6,0xD7,0xB7,0xD9,0xDA,0xDB,0xDC,0xDD,0xDE,0xDF, \
 198:ff.c          **** 				0xE0,0xE1,0xE2,0xE3,0xE3,0xD5,0xE6,0xE6,0xE8,0xE9,0xE8,0xEB,0xED,0xED,0xDD,0xEF, \
 199:ff.c          **** 				0xF0,0xF1,0xF2,0xF3,0xF4,0xF5,0xF6,0xF7,0xF8,0xF9,0xFA,0xEB,0xFC,0xFC,0xFE,0xFF}
 200:ff.c          **** 
 201:ff.c          **** #elif _CODE_PAGE == 855	/* Cyrillic */
 202:ff.c          **** #define _DF1S	0
ARM GAS  C:\Users\linar\AppData\Local\Temp\ccAaFYxm.s 			page 5


 203:ff.c          **** #define _EXCVT {0x81,0x81,0x83,0x83,0x85,0x85,0x87,0x87,0x89,0x89,0x8B,0x8B,0x8D,0x8D,0x8F,0x8F, \
 204:ff.c          **** 				0x91,0x91,0x93,0x93,0x95,0x95,0x97,0x97,0x99,0x99,0x9B,0x9B,0x9D,0x9D,0x9F,0x9F, \
 205:ff.c          **** 				0xA1,0xA1,0xA3,0xA3,0xA5,0xA5,0xA7,0xA7,0xA9,0xA9,0xAB,0xAB,0xAD,0xAD,0xAE,0xAF, \
 206:ff.c          **** 				0xB0,0xB1,0xB2,0xB3,0xB4,0xB6,0xB6,0xB8,0xB8,0xB9,0xBA,0xBB,0xBC,0xBE,0xBE,0xBF, \
 207:ff.c          **** 				0xC0,0xC1,0xC2,0xC3,0xC4,0xC5,0xC7,0xC7,0xC8,0xC9,0xCA,0xCB,0xCC,0xCD,0xCE,0xCF, \
 208:ff.c          **** 				0xD1,0xD1,0xD3,0xD3,0xD5,0xD5,0xD7,0xD7,0xDD,0xD9,0xDA,0xDB,0xDC,0xDD,0xE0,0xDF, \
 209:ff.c          **** 				0xE0,0xE2,0xE2,0xE4,0xE4,0xE6,0xE6,0xE8,0xE8,0xEA,0xEA,0xEC,0xEC,0xEE,0xEE,0xEF, \
 210:ff.c          **** 				0xF0,0xF2,0xF2,0xF4,0xF4,0xF6,0xF6,0xF8,0xF8,0xFA,0xFA,0xFC,0xFC,0xFD,0xFE,0xFF}
 211:ff.c          **** 
 212:ff.c          **** #elif _CODE_PAGE == 857	/* Turkish */
 213:ff.c          **** #define _DF1S	0
 214:ff.c          **** #define _EXCVT {0x80,0x9A,0x90,0xB6,0x8E,0xB7,0x8F,0x80,0xD2,0xD3,0xD4,0xD8,0xD7,0x49,0x8E,0x8F, \
 215:ff.c          **** 				0x90,0x92,0x92,0xE2,0x99,0xE3,0xEA,0xEB,0x98,0x99,0x9A,0x9D,0x9C,0x9D,0x9E,0x9E, \
 216:ff.c          **** 				0xB5,0xD6,0xE0,0xE9,0xA5,0xA5,0xA6,0xA6,0xA8,0xA9,0xAA,0xAB,0xAC,0xAD,0xAE,0xAF, \
 217:ff.c          **** 				0xB0,0xB1,0xB2,0xB3,0xB4,0xB5,0xB6,0xB7,0xB8,0xB9,0xBA,0xBB,0xBC,0xBD,0xBE,0xBF, \
 218:ff.c          **** 				0xC0,0xC1,0xC2,0xC3,0xC4,0xC5,0xC7,0xC7,0xC8,0xC9,0xCA,0xCB,0xCC,0xCD,0xCE,0xCF, \
 219:ff.c          **** 				0xD0,0xD1,0xD2,0xD3,0xD4,0x49,0xD6,0xD7,0xD8,0xD9,0xDA,0xDB,0xDC,0xDD,0xDE,0xDF, \
 220:ff.c          **** 				0xE0,0xE1,0xE2,0xE3,0xE5,0xE5,0xE6,0xE7,0xE8,0xE9,0xEA,0xEB,0xDE,0xED,0xEE,0xEF, \
 221:ff.c          **** 				0xF0,0xF1,0xF2,0xF3,0xF4,0xF5,0xF6,0xF7,0xF8,0xF9,0xFA,0xFB,0xFC,0xFD,0xFE,0xFF}
 222:ff.c          **** 
 223:ff.c          **** #elif _CODE_PAGE == 860	/* Portuguese */
 224:ff.c          **** #define _DF1S	0
 225:ff.c          **** #define _EXCVT {0x80,0x9A,0x90,0x8F,0x8E,0x91,0x86,0x80,0x89,0x89,0x92,0x8B,0x8C,0x98,0x8E,0x8F, \
 226:ff.c          **** 				0x90,0x91,0x92,0x8C,0x99,0xA9,0x96,0x9D,0x98,0x99,0x9A,0x9B,0x9C,0x9D,0x9E,0x9F, \
 227:ff.c          **** 				0x86,0x8B,0x9F,0x96,0xA5,0xA5,0xA6,0xA7,0xA8,0xA9,0xAA,0xAB,0xAC,0xAD,0xAE,0xAF, \
 228:ff.c          **** 				0xB0,0xB1,0xB2,0xB3,0xB4,0xB5,0xB6,0xB7,0xB8,0xB9,0xBA,0xBB,0xBC,0xBD,0xBE,0xBF, \
 229:ff.c          **** 				0xC0,0xC1,0xC2,0xC3,0xC4,0xC5,0xC6,0xC7,0xC8,0xC9,0xCA,0xCB,0xCC,0xCD,0xCE,0xCF, \
 230:ff.c          **** 				0xD0,0xD1,0xD2,0xD3,0xD4,0xD5,0xD6,0xD7,0xD8,0xD9,0xDA,0xDB,0xDC,0xDD,0xDE,0xDF, \
 231:ff.c          **** 				0xE0,0xE1,0xE2,0xE3,0xE4,0xE5,0xE6,0xE7,0xE8,0xE9,0xEA,0xEB,0xEC,0xED,0xEE,0xEF, \
 232:ff.c          **** 				0xF0,0xF1,0xF2,0xF3,0xF4,0xF5,0xF6,0xF7,0xF8,0xF9,0xFA,0xFB,0xFC,0xFD,0xFE,0xFF}
 233:ff.c          **** 
 234:ff.c          **** #elif _CODE_PAGE == 861	/* Icelandic */
 235:ff.c          **** #define _DF1S	0
 236:ff.c          **** #define _EXCVT {0x80,0x9A,0x90,0x41,0x8E,0x41,0x8F,0x80,0x45,0x45,0x45,0x8B,0x8B,0x8D,0x8E,0x8F, \
 237:ff.c          **** 				0x90,0x92,0x92,0x4F,0x99,0x8D,0x55,0x97,0x97,0x99,0x9A,0x9D,0x9C,0x9D,0x9E,0x9F, \
 238:ff.c          **** 				0xA4,0xA5,0xA6,0xA7,0xA4,0xA5,0xA6,0xA7,0xA8,0xA9,0xAA,0xAB,0xAC,0xAD,0xAE,0xAF, \
 239:ff.c          **** 				0xB0,0xB1,0xB2,0xB3,0xB4,0xB5,0xB6,0xB7,0xB8,0xB9,0xBA,0xBB,0xBC,0xBD,0xBE,0xBF, \
 240:ff.c          **** 				0xC0,0xC1,0xC2,0xC3,0xC4,0xC5,0xC6,0xC7,0xC8,0xC9,0xCA,0xCB,0xCC,0xCD,0xCE,0xCF, \
 241:ff.c          **** 				0xD0,0xD1,0xD2,0xD3,0xD4,0xD5,0xD6,0xD7,0xD8,0xD9,0xDA,0xDB,0xDC,0xDD,0xDE,0xDF, \
 242:ff.c          **** 				0xE0,0xE1,0xE2,0xE3,0xE4,0xE5,0xE6,0xE7,0xE8,0xE9,0xEA,0xEB,0xEC,0xED,0xEE,0xEF, \
 243:ff.c          **** 				0xF0,0xF1,0xF2,0xF3,0xF4,0xF5,0xF6,0xF7,0xF8,0xF9,0xFA,0xFB,0xFC,0xFD,0xFE,0xFF}
 244:ff.c          **** 
 245:ff.c          **** #elif _CODE_PAGE == 862	/* Hebrew */
 246:ff.c          **** #define _DF1S	0
 247:ff.c          **** #define _EXCVT {0x80,0x81,0x82,0x83,0x84,0x85,0x86,0x87,0x88,0x89,0x8A,0x8B,0x8C,0x8D,0x8E,0x8F, \
 248:ff.c          **** 				0x90,0x91,0x92,0x93,0x94,0x95,0x96,0x97,0x98,0x99,0x9A,0x9B,0x9C,0x9D,0x9E,0x9F, \
 249:ff.c          **** 				0x41,0x49,0x4F,0x55,0xA5,0xA5,0xA6,0xA7,0xA8,0xA9,0xAA,0xAB,0xAC,0xAD,0xAE,0xAF, \
 250:ff.c          **** 				0xB0,0xB1,0xB2,0xB3,0xB4,0xB5,0xB6,0xB7,0xB8,0xB9,0xBA,0xBB,0xBC,0xBD,0xBE,0xBF, \
 251:ff.c          **** 				0xC0,0xC1,0xC2,0xC3,0xC4,0xC5,0xC6,0xC7,0xC8,0xC9,0xCA,0xCB,0xCC,0xCD,0xCE,0xCF, \
 252:ff.c          **** 				0xD0,0xD1,0xD2,0xD3,0xD4,0xD5,0xD6,0xD7,0xD8,0xD9,0xDA,0xDB,0xDC,0xDD,0xDE,0xDF, \
 253:ff.c          **** 				0xE0,0xE1,0xE2,0xE3,0xE4,0xE5,0xE6,0xE7,0xE8,0xE9,0xEA,0xEB,0xEC,0xED,0xEE,0xEF, \
 254:ff.c          **** 				0xF0,0xF1,0xF2,0xF3,0xF4,0xF5,0xF6,0xF7,0xF8,0xF9,0xFA,0xFB,0xFC,0xFD,0xFE,0xFF}
 255:ff.c          **** 
 256:ff.c          **** #elif _CODE_PAGE == 863	/* Canadian-French */
 257:ff.c          **** #define _DF1S	0
 258:ff.c          **** #define _EXCVT {0x43,0x55,0x45,0x41,0x41,0x41,0x86,0x43,0x45,0x45,0x45,0x49,0x49,0x8D,0x41,0x8F, \
 259:ff.c          **** 				0x45,0x45,0x45,0x4F,0x45,0x49,0x55,0x55,0x98,0x4F,0x55,0x9B,0x9C,0x55,0x55,0x9F, \
ARM GAS  C:\Users\linar\AppData\Local\Temp\ccAaFYxm.s 			page 6


 260:ff.c          **** 				0xA0,0xA1,0x4F,0x55,0xA4,0xA5,0xA6,0xA7,0x49,0xA9,0xAA,0xAB,0xAC,0xAD,0xAE,0xAF, \
 261:ff.c          **** 				0xB0,0xB1,0xB2,0xB3,0xB4,0xB5,0xB6,0xB7,0xB8,0xB9,0xBA,0xBB,0xBC,0xBD,0xBE,0xBF, \
 262:ff.c          **** 				0xC0,0xC1,0xC2,0xC3,0xC4,0xC5,0xC6,0xC7,0xC8,0xC9,0xCA,0xCB,0xCC,0xCD,0xCE,0xCF, \
 263:ff.c          **** 				0xD0,0xD1,0xD2,0xD3,0xD4,0xD5,0xD6,0xD7,0xD8,0xD9,0xDA,0xDB,0xDC,0xDD,0xDE,0xDF, \
 264:ff.c          **** 				0xE0,0xE1,0xE2,0xE3,0xE4,0xE5,0xE6,0xE7,0xE8,0xE9,0xEA,0xEB,0xEC,0xED,0xEE,0xEF, \
 265:ff.c          **** 				0xF0,0xF1,0xF2,0xF3,0xF4,0xF5,0xF6,0xF7,0xF8,0xF9,0xFA,0xFB,0xFC,0xFD,0xFE,0xFF}
 266:ff.c          **** 
 267:ff.c          **** #elif _CODE_PAGE == 864	/* Arabic */
 268:ff.c          **** #define _DF1S	0
 269:ff.c          **** #define _EXCVT {0x80,0x9A,0x45,0x41,0x8E,0x41,0x8F,0x80,0x45,0x45,0x45,0x49,0x49,0x49,0x8E,0x8F, \
 270:ff.c          **** 				0x90,0x92,0x92,0x4F,0x99,0x4F,0x55,0x55,0x59,0x99,0x9A,0x9B,0x9C,0x9D,0x9E,0x9F, \
 271:ff.c          **** 				0x41,0x49,0x4F,0x55,0xA5,0xA5,0xA6,0xA7,0xA8,0xA9,0xAA,0xAB,0xAC,0xAD,0xAE,0xAF, \
 272:ff.c          **** 				0xB0,0xB1,0xB2,0xB3,0xB4,0xB5,0xB6,0xB7,0xB8,0xB9,0xBA,0xBB,0xBC,0xBD,0xBE,0xBF, \
 273:ff.c          **** 				0xC0,0xC1,0xC2,0xC3,0xC4,0xC5,0xC6,0xC7,0xC8,0xC9,0xCA,0xCB,0xCC,0xCD,0xCE,0xCF, \
 274:ff.c          **** 				0xD0,0xD1,0xD2,0xD3,0xD4,0xD5,0xD6,0xD7,0xD8,0xD9,0xDA,0xDB,0xDC,0xDD,0xDE,0xDF, \
 275:ff.c          **** 				0xE0,0xE1,0xE2,0xE3,0xE4,0xE5,0xE6,0xE7,0xE8,0xE9,0xEA,0xEB,0xEC,0xED,0xEE,0xEF, \
 276:ff.c          **** 				0xF0,0xF1,0xF2,0xF3,0xF4,0xF5,0xF6,0xF7,0xF8,0xF9,0xFA,0xFB,0xFC,0xFD,0xFE,0xFF}
 277:ff.c          **** 
 278:ff.c          **** #elif _CODE_PAGE == 865	/* Nordic */
 279:ff.c          **** #define _DF1S	0
 280:ff.c          **** #define _EXCVT {0x80,0x9A,0x90,0x41,0x8E,0x41,0x8F,0x80,0x45,0x45,0x45,0x49,0x49,0x49,0x8E,0x8F, \
 281:ff.c          **** 				0x90,0x92,0x92,0x4F,0x99,0x4F,0x55,0x55,0x59,0x99,0x9A,0x9B,0x9C,0x9D,0x9E,0x9F, \
 282:ff.c          **** 				0x41,0x49,0x4F,0x55,0xA5,0xA5,0xA6,0xA7,0xA8,0xA9,0xAA,0xAB,0xAC,0xAD,0xAE,0xAF, \
 283:ff.c          **** 				0xB0,0xB1,0xB2,0xB3,0xB4,0xB5,0xB6,0xB7,0xB8,0xB9,0xBA,0xBB,0xBC,0xBD,0xBE,0xBF, \
 284:ff.c          **** 				0xC0,0xC1,0xC2,0xC3,0xC4,0xC5,0xC6,0xC7,0xC8,0xC9,0xCA,0xCB,0xCC,0xCD,0xCE,0xCF, \
 285:ff.c          **** 				0xD0,0xD1,0xD2,0xD3,0xD4,0xD5,0xD6,0xD7,0xD8,0xD9,0xDA,0xDB,0xDC,0xDD,0xDE,0xDF, \
 286:ff.c          **** 				0xE0,0xE1,0xE2,0xE3,0xE4,0xE5,0xE6,0xE7,0xE8,0xE9,0xEA,0xEB,0xEC,0xED,0xEE,0xEF, \
 287:ff.c          **** 				0xF0,0xF1,0xF2,0xF3,0xF4,0xF5,0xF6,0xF7,0xF8,0xF9,0xFA,0xFB,0xFC,0xFD,0xFE,0xFF}
 288:ff.c          **** 
 289:ff.c          **** #elif _CODE_PAGE == 866	/* Russian */
 290:ff.c          **** #define _DF1S	0
 291:ff.c          **** #define _EXCVT {0x80,0x81,0x82,0x83,0x84,0x85,0x86,0x87,0x88,0x89,0x8A,0x8B,0x8C,0x8D,0x8E,0x8F, \
 292:ff.c          **** 				0x90,0x91,0x92,0x93,0x94,0x95,0x96,0x97,0x98,0x99,0x9A,0x9B,0x9C,0x9D,0x9E,0x9F, \
 293:ff.c          **** 				0x80,0x81,0x82,0x83,0x84,0x85,0x86,0x87,0x88,0x89,0x8A,0x8B,0x8C,0x8D,0x8E,0x8F, \
 294:ff.c          **** 				0xB0,0xB1,0xB2,0xB3,0xB4,0xB5,0xB6,0xB7,0xB8,0xB9,0xBA,0xBB,0xBC,0xBD,0xBE,0xBF, \
 295:ff.c          **** 				0xC0,0xC1,0xC2,0xC3,0xC4,0xC5,0xC6,0xC7,0xC8,0xC9,0xCA,0xCB,0xCC,0xCD,0xCE,0xCF, \
 296:ff.c          **** 				0xD0,0xD1,0xD2,0xD3,0xD4,0xD5,0xD6,0xD7,0xD8,0xD9,0xDA,0xDB,0xDC,0xDD,0xDE,0xDF, \
 297:ff.c          **** 				0x90,0x91,0x92,0x93,0x9d,0x95,0x96,0x97,0x98,0x99,0x9A,0x9B,0x9C,0x9D,0x9E,0x9F, \
 298:ff.c          **** 				0xF0,0xF0,0xF2,0xF2,0xF4,0xF4,0xF6,0xF6,0xF8,0xF9,0xFA,0xFB,0xFC,0xFD,0xFE,0xFF}
 299:ff.c          **** 
 300:ff.c          **** #elif _CODE_PAGE == 869	/* Greek 2 */
 301:ff.c          **** #define _DF1S	0
 302:ff.c          **** #define _EXCVT {0x80,0x81,0x82,0x83,0x84,0x85,0x86,0x87,0x88,0x89,0x8A,0x8B,0x8C,0x8D,0x8E,0x8F, \
 303:ff.c          **** 				0x90,0x91,0x92,0x93,0x94,0x95,0x96,0x97,0x98,0x99,0x9A,0x86,0x9C,0x8D,0x8F,0x90, \
 304:ff.c          **** 				0x91,0x90,0x92,0x95,0xA4,0xA5,0xA6,0xA7,0xA8,0xA9,0xAA,0xAB,0xAC,0xAD,0xAE,0xAF, \
 305:ff.c          **** 				0xB0,0xB1,0xB2,0xB3,0xB4,0xB5,0xB6,0xB7,0xB8,0xB9,0xBA,0xBB,0xBC,0xBD,0xBE,0xBF, \
 306:ff.c          **** 				0xC0,0xC1,0xC2,0xC3,0xC4,0xC5,0xC6,0xC7,0xC8,0xC9,0xCA,0xCB,0xCC,0xCD,0xCE,0xCF, \
 307:ff.c          **** 				0xD0,0xD1,0xD2,0xD3,0xD4,0xD5,0xA4,0xA5,0xA6,0xD9,0xDA,0xDB,0xDC,0xA7,0xA8,0xDF, \
 308:ff.c          **** 				0xA9,0xAA,0xAC,0xAD,0xB5,0xB6,0xB7,0xB8,0xBD,0xBE,0xC6,0xC7,0xCF,0xCF,0xD0,0xEF, \
 309:ff.c          **** 				0xF0,0xF1,0xD1,0xD2,0xD3,0xF5,0xD4,0xF7,0xF8,0xF9,0xD5,0x96,0x95,0x98,0xFE,0xFF}
 310:ff.c          **** 
 311:ff.c          **** #elif _CODE_PAGE == 1	/* ASCII (for only non-LFN cfg) */
 312:ff.c          **** #if _USE_LFN
 313:ff.c          **** #error Cannot use LFN feature without valid code page.
 314:ff.c          **** #endif
 315:ff.c          **** #define _DF1S	0
 316:ff.c          **** 
ARM GAS  C:\Users\linar\AppData\Local\Temp\ccAaFYxm.s 			page 7


 317:ff.c          **** #else
 318:ff.c          **** #error Unknown code page
 319:ff.c          **** 
 320:ff.c          **** #endif
 321:ff.c          **** 
 322:ff.c          **** 
 323:ff.c          **** /* Character code support macros */
 324:ff.c          **** #define IsUpper(c)	(((c)>='A')&&((c)<='Z'))
 325:ff.c          **** #define IsLower(c)	(((c)>='a')&&((c)<='z'))
 326:ff.c          **** #define IsDigit(c)	(((c)>='0')&&((c)<='9'))
 327:ff.c          **** 
 328:ff.c          **** #if _DF1S		/* Code page is DBCS */
 329:ff.c          **** 
 330:ff.c          **** #ifdef _DF2S	/* Two 1st byte areas */
 331:ff.c          **** #define IsDBCS1(c)	(((BYTE)(c) >= _DF1S && (BYTE)(c) <= _DF1E) || ((BYTE)(c) >= _DF2S && (BYTE)(c) 
 332:ff.c          **** #else			/* One 1st byte area */
 333:ff.c          **** #define IsDBCS1(c)	((BYTE)(c) >= _DF1S && (BYTE)(c) <= _DF1E)
 334:ff.c          **** #endif
 335:ff.c          **** 
 336:ff.c          **** #ifdef _DS3S	/* Three 2nd byte areas */
 337:ff.c          **** #define IsDBCS2(c)	(((BYTE)(c) >= _DS1S && (BYTE)(c) <= _DS1E) || ((BYTE)(c) >= _DS2S && (BYTE)(c) 
 338:ff.c          **** #else			/* Two 2nd byte areas */
 339:ff.c          **** #define IsDBCS2(c)	(((BYTE)(c) >= _DS1S && (BYTE)(c) <= _DS1E) || ((BYTE)(c) >= _DS2S && (BYTE)(c) 
 340:ff.c          **** #endif
 341:ff.c          **** 
 342:ff.c          **** #else			/* Code page is SBCS */
 343:ff.c          **** 
 344:ff.c          **** #define IsDBCS1(c)	0
 345:ff.c          **** #define IsDBCS2(c)	0
 346:ff.c          **** 
 347:ff.c          **** #endif /* _DF1S */
 348:ff.c          **** 
 349:ff.c          **** 
 350:ff.c          **** /* Name status flags */
 351:ff.c          **** #define NSFLAG		11		/* Index of name status byte in fn[] */
 352:ff.c          **** #define NS_LOSS		0x01	/* Out of 8.3 format */
 353:ff.c          **** #define NS_LFN		0x02	/* Force to create LFN entry */
 354:ff.c          **** #define NS_LAST		0x04	/* Last segment */
 355:ff.c          **** #define NS_BODY		0x08	/* Lower case flag (body) */
 356:ff.c          **** #define NS_EXT		0x10	/* Lower case flag (ext) */
 357:ff.c          **** #define NS_DOT		0x20	/* Dot entry */
 358:ff.c          **** 
 359:ff.c          **** 
 360:ff.c          **** /* FAT sub-type boundaries (Differ from specs but correct for real DOS/Windows) */
 361:ff.c          **** #define MIN_FAT16	4086U	/* Minimum number of clusters of FAT16 */
 362:ff.c          **** #define	MIN_FAT32	65526U	/* Minimum number of clusters of FAT32 */
 363:ff.c          **** 
 364:ff.c          **** 
 365:ff.c          **** /* FatFs refers the members in the FAT structures as byte array instead of
 366:ff.c          **** / structure members because the structure is not binary compatible between
 367:ff.c          **** / different platforms */
 368:ff.c          **** 
 369:ff.c          **** #define BS_jmpBoot			0		/* x86 jump instruction (3) */
 370:ff.c          **** #define BS_OEMName			3		/* OEM name (8) */
 371:ff.c          **** #define BPB_BytsPerSec		11		/* Sector size [byte] (2) */
 372:ff.c          **** #define BPB_SecPerClus		13		/* Cluster size [sector] (1) */
 373:ff.c          **** #define BPB_RsvdSecCnt		14		/* Size of reserved area [sector] (2) */
ARM GAS  C:\Users\linar\AppData\Local\Temp\ccAaFYxm.s 			page 8


 374:ff.c          **** #define BPB_NumFATs			16		/* Number of FAT copies (1) */
 375:ff.c          **** #define BPB_RootEntCnt		17		/* Number of root directory entries for FAT12/16 (2) */
 376:ff.c          **** #define BPB_TotSec16		19		/* Volume size [sector] (2) */
 377:ff.c          **** #define BPB_Media			21		/* Media descriptor (1) */
 378:ff.c          **** #define BPB_FATSz16			22		/* FAT size [sector] (2) */
 379:ff.c          **** #define BPB_SecPerTrk		24		/* Track size [sector] (2) */
 380:ff.c          **** #define BPB_NumHeads		26		/* Number of heads (2) */
 381:ff.c          **** #define BPB_HiddSec			28		/* Number of special hidden sectors (4) */
 382:ff.c          **** #define BPB_TotSec32		32		/* Volume size [sector] (4) */
 383:ff.c          **** #define BS_DrvNum			36		/* Physical drive number (1) */
 384:ff.c          **** #define BS_NTres			37		/* Error flag (1) */
 385:ff.c          **** #define BS_BootSig			38		/* Extended boot signature (1) */
 386:ff.c          **** #define BS_VolID			39		/* Volume serial number (4) */
 387:ff.c          **** #define BS_VolLab			43		/* Volume label (8) */
 388:ff.c          **** #define BS_FilSysType		54		/* File system type (1) */
 389:ff.c          **** #define BPB_FATSz32			36		/* FAT size [sector] (4) */
 390:ff.c          **** #define BPB_ExtFlags		40		/* Extended flags (2) */
 391:ff.c          **** #define BPB_FSVer			42		/* File system version (2) */
 392:ff.c          **** #define BPB_RootClus		44		/* Root directory first cluster (4) */
 393:ff.c          **** #define BPB_FSInfo			48		/* Offset of FSINFO sector (2) */
 394:ff.c          **** #define BPB_BkBootSec		50		/* Offset of backup boot sector (2) */
 395:ff.c          **** #define BS_DrvNum32			64		/* Physical drive number (1) */
 396:ff.c          **** #define BS_NTres32			65		/* Error flag (1) */
 397:ff.c          **** #define BS_BootSig32		66		/* Extended boot signature (1) */
 398:ff.c          **** #define BS_VolID32			67		/* Volume serial number (4) */
 399:ff.c          **** #define BS_VolLab32			71		/* Volume label (8) */
 400:ff.c          **** #define BS_FilSysType32		82		/* File system type (1) */
 401:ff.c          **** #define	FSI_LeadSig			0		/* FSI: Leading signature (4) */
 402:ff.c          **** #define	FSI_StrucSig		484		/* FSI: Structure signature (4) */
 403:ff.c          **** #define	FSI_Free_Count		488		/* FSI: Number of free clusters (4) */
 404:ff.c          **** #define	FSI_Nxt_Free		492		/* FSI: Last allocated cluster (4) */
 405:ff.c          **** #define MBR_Table			446		/* MBR: Partition table offset (2) */
 406:ff.c          **** #define	SZ_PTE				16		/* MBR: Size of a partition table entry */
 407:ff.c          **** #define BS_55AA				510		/* Signature word (2) */
 408:ff.c          **** 
 409:ff.c          **** #define	DIR_Name			0		/* Short file name (11) */
 410:ff.c          **** #define	DIR_Attr			11		/* Attribute (1) */
 411:ff.c          **** #define	DIR_NTres			12		/* Lower case flag (1) */
 412:ff.c          **** #define DIR_CrtTimeTenth	13		/* Created time sub-second (1) */
 413:ff.c          **** #define	DIR_CrtTime			14		/* Created time (2) */
 414:ff.c          **** #define	DIR_CrtDate			16		/* Created date (2) */
 415:ff.c          **** #define DIR_LstAccDate		18		/* Last accessed date (2) */
 416:ff.c          **** #define	DIR_FstClusHI		20		/* Higher 16-bit of first cluster (2) */
 417:ff.c          **** #define	DIR_WrtTime			22		/* Modified time (2) */
 418:ff.c          **** #define	DIR_WrtDate			24		/* Modified date (2) */
 419:ff.c          **** #define	DIR_FstClusLO		26		/* Lower 16-bit of first cluster (2) */
 420:ff.c          **** #define	DIR_FileSize		28		/* File size (4) */
 421:ff.c          **** #define	LDIR_Ord			0		/* LFN entry order and LLE flag (1) */
 422:ff.c          **** #define	LDIR_Attr			11		/* LFN attribute (1) */
 423:ff.c          **** #define	LDIR_Type			12		/* LFN type (1) */
 424:ff.c          **** #define	LDIR_Chksum			13		/* Checksum of corresponding SFN entry */
 425:ff.c          **** #define	LDIR_FstClusLO		26		/* Must be zero (0) */
 426:ff.c          **** #define	SZ_DIRE				32		/* Size of a directory entry */
 427:ff.c          **** #define	LLEF				0x40	/* Last long entry flag in LDIR_Ord */
 428:ff.c          **** #define	DDEM				0xE5	/* Deleted directory entry mark at DIR_Name[0] */
 429:ff.c          **** #define	RDDEM				0x05	/* Replacement of the character collides with DDEM */
 430:ff.c          **** 
ARM GAS  C:\Users\linar\AppData\Local\Temp\ccAaFYxm.s 			page 9


 431:ff.c          **** 
 432:ff.c          **** 
 433:ff.c          **** 
 434:ff.c          **** /*--------------------------------------------------------------------------
 435:ff.c          **** 
 436:ff.c          ****    Module Private Work Area
 437:ff.c          **** 
 438:ff.c          **** ---------------------------------------------------------------------------*/
 439:ff.c          **** 
 440:ff.c          **** /* Remark: Uninitialized variables with static duration are guaranteed
 441:ff.c          **** /  zero/null at start-up. If not, either the linker or start-up routine
 442:ff.c          **** /  being used is not compliance with ANSI-C standard.
 443:ff.c          **** */
 444:ff.c          **** 
 445:ff.c          **** #if _VOLUMES < 1 || _VOLUMES > 9
 446:ff.c          **** #error Wrong _VOLUMES setting
 447:ff.c          **** #endif
 448:ff.c          **** static FATFS *FatFs[_VOLUMES];	/* Pointer to the file system objects (logical drives) */
 449:ff.c          **** static WORD Fsid;				/* File system mount ID */
 450:ff.c          **** 
 451:ff.c          **** #if _FS_RPATH && _VOLUMES >= 2
 452:ff.c          **** static BYTE CurrVol;			/* Current drive */
 453:ff.c          **** #endif
 454:ff.c          **** 
 455:ff.c          **** #if _FS_LOCK
 456:ff.c          **** static FILESEM Files[_FS_LOCK];	/* Open object lock semaphores */
 457:ff.c          **** #endif
 458:ff.c          **** 
 459:ff.c          **** #if _USE_LFN == 0			/* Non LFN feature */
 460:ff.c          **** #define	DEFINE_NAMEBUF		BYTE sfn[12]
 461:ff.c          **** #define INIT_BUF(dobj)		(dobj).fn = sfn
 462:ff.c          **** #define	FREE_BUF()
 463:ff.c          **** #else
 464:ff.c          **** #if _MAX_LFN < 12 || _MAX_LFN > 255
 465:ff.c          **** #error Wrong _MAX_LFN setting
 466:ff.c          **** #endif
 467:ff.c          **** #if _USE_LFN == 1			/* LFN feature with static working buffer */
 468:ff.c          **** static WCHAR LfnBuf[_MAX_LFN + 1];
 469:ff.c          **** #define	DEFINE_NAMEBUF		BYTE sfn[12]
 470:ff.c          **** #define INIT_BUF(dobj)		{ (dobj).fn = sfn; (dobj).lfn = LfnBuf; }
 471:ff.c          **** #define	FREE_BUF()
 472:ff.c          **** #elif _USE_LFN == 2 		/* LFN feature with dynamic working buffer on the stack */
 473:ff.c          **** #define	DEFINE_NAMEBUF		BYTE sfn[12]; WCHAR lbuf[_MAX_LFN + 1]
 474:ff.c          **** #define INIT_BUF(dobj)		{ (dobj).fn = sfn; (dobj).lfn = lbuf; }
 475:ff.c          **** #define	FREE_BUF()
 476:ff.c          **** #elif _USE_LFN == 3 		/* LFN feature with dynamic working buffer on the heap */
 477:ff.c          **** #define	DEFINE_NAMEBUF		BYTE sfn[12]; WCHAR *lfn
 478:ff.c          **** #define INIT_BUF(dobj)		{ lfn = ff_memalloc((_MAX_LFN + 1) * 2); if (!lfn) LEAVE_FF((dobj).fs, FR_N
 479:ff.c          **** #define	FREE_BUF()			ff_memfree(lfn)
 480:ff.c          **** #else
 481:ff.c          **** #error Wrong _USE_LFN setting
 482:ff.c          **** #endif
 483:ff.c          **** #endif
 484:ff.c          **** 
 485:ff.c          **** #ifdef _EXCVT
 486:ff.c          **** static const BYTE ExCvt[] = _EXCVT;	/* Upper conversion table for SBCS extended characters */
 487:ff.c          **** #endif
ARM GAS  C:\Users\linar\AppData\Local\Temp\ccAaFYxm.s 			page 10


 488:ff.c          **** 
 489:ff.c          **** 
 490:ff.c          **** 
 491:ff.c          **** 
 492:ff.c          **** 
 493:ff.c          **** 
 494:ff.c          **** /*--------------------------------------------------------------------------
 495:ff.c          **** 
 496:ff.c          ****    Module Private Functions
 497:ff.c          **** 
 498:ff.c          **** ---------------------------------------------------------------------------*/
 499:ff.c          **** 
 500:ff.c          **** 
 501:ff.c          **** /*-----------------------------------------------------------------------*/
 502:ff.c          **** /* String functions                                                      */
 503:ff.c          **** /*-----------------------------------------------------------------------*/
 504:ff.c          **** 
 505:ff.c          **** /* Copy memory to memory */
 506:ff.c          **** static
 507:ff.c          **** void mem_cpy (void* dst, const void* src, UINT cnt) {
  27              		.loc 1 507 0
  28              		.cfi_startproc
  29              		@ args = 0, pretend = 0, frame = 0
  30              		@ frame_needed = 0, uses_anonymous_args = 0
  31              		@ link register save eliminated.
  32              	.LVL0:
 508:ff.c          **** 	BYTE *d = (BYTE*)dst;
 509:ff.c          **** 	const BYTE *s = (const BYTE*)src;
 510:ff.c          **** 
 511:ff.c          **** #if _WORD_ACCESS == 1
 512:ff.c          **** 	while (cnt >= sizeof (int)) {
 513:ff.c          **** 		*(int*)d = *(int*)s;
 514:ff.c          **** 		d += sizeof (int); s += sizeof (int);
 515:ff.c          **** 		cnt -= sizeof (int);
 516:ff.c          **** 	}
 517:ff.c          **** #endif
 518:ff.c          **** 	while (cnt--)
  33              		.loc 1 518 0
  34 0000 04E0     		b	.L2
  35              	.LVL1:
  36              	.L3:
 519:ff.c          **** 		*d++ = *s++;
  37              		.loc 1 519 0
  38 0002 0A78     		ldrb	r2, [r1]	@ zero_extendqisi2
  39 0004 0270     		strb	r2, [r0]
 518:ff.c          **** 		*d++ = *s++;
  40              		.loc 1 518 0
  41 0006 1A46     		mov	r2, r3
  42              		.loc 1 519 0
  43 0008 0131     		adds	r1, r1, #1
  44              	.LVL2:
  45 000a 0130     		adds	r0, r0, #1
  46              	.LVL3:
  47              	.L2:
 518:ff.c          **** 		*d++ = *s++;
  48              		.loc 1 518 0
  49 000c 531E     		subs	r3, r2, #1
ARM GAS  C:\Users\linar\AppData\Local\Temp\ccAaFYxm.s 			page 11


  50              	.LVL4:
  51 000e 002A     		cmp	r2, #0
  52 0010 F7D1     		bne	.L3
 520:ff.c          **** }
  53              		.loc 1 520 0
  54 0012 7047     		bx	lr
  55              		.cfi_endproc
  56              	.LFE0:
  57              		.size	mem_cpy, .-mem_cpy
  58              		.section	.text.mem_set,"ax",%progbits
  59              		.align	2
  60              		.thumb
  61              		.thumb_func
  62              		.type	mem_set, %function
  63              	mem_set:
  64              	.LFB1:
 521:ff.c          **** 
 522:ff.c          **** /* Fill memory */
 523:ff.c          **** static
 524:ff.c          **** void mem_set (void* dst, int val, UINT cnt) {
  65              		.loc 1 524 0
  66              		.cfi_startproc
  67              		@ args = 0, pretend = 0, frame = 0
  68              		@ frame_needed = 0, uses_anonymous_args = 0
  69              		@ link register save eliminated.
  70              	.LVL5:
 525:ff.c          **** 	BYTE *d = (BYTE*)dst;
 526:ff.c          **** 
 527:ff.c          **** 	while (cnt--)
  71              		.loc 1 527 0
  72 0000 02E0     		b	.L5
  73              	.LVL6:
  74              	.L6:
 528:ff.c          **** 		*d++ = (BYTE)val;
  75              		.loc 1 528 0
  76 0002 0170     		strb	r1, [r0]
 527:ff.c          **** 		*d++ = (BYTE)val;
  77              		.loc 1 527 0
  78 0004 1A46     		mov	r2, r3
  79              		.loc 1 528 0
  80 0006 0130     		adds	r0, r0, #1
  81              	.LVL7:
  82              	.L5:
 527:ff.c          **** 		*d++ = (BYTE)val;
  83              		.loc 1 527 0
  84 0008 531E     		subs	r3, r2, #1
  85              	.LVL8:
  86 000a 002A     		cmp	r2, #0
  87 000c F9D1     		bne	.L6
 529:ff.c          **** }
  88              		.loc 1 529 0
  89 000e 7047     		bx	lr
  90              		.cfi_endproc
  91              	.LFE1:
  92              		.size	mem_set, .-mem_set
  93              		.section	.text.mem_cmp,"ax",%progbits
  94              		.align	2
ARM GAS  C:\Users\linar\AppData\Local\Temp\ccAaFYxm.s 			page 12


  95              		.thumb
  96              		.thumb_func
  97              		.type	mem_cmp, %function
  98              	mem_cmp:
  99              	.LFB2:
 530:ff.c          **** 
 531:ff.c          **** /* Compare memory to memory */
 532:ff.c          **** static
 533:ff.c          **** int mem_cmp (const void* dst, const void* src, UINT cnt) {
 100              		.loc 1 533 0
 101              		.cfi_startproc
 102              		@ args = 0, pretend = 0, frame = 0
 103              		@ frame_needed = 0, uses_anonymous_args = 0
 104              		@ link register save eliminated.
 105              	.LVL9:
 106 0000 70B4     		push	{r4, r5, r6}
 107              		.cfi_def_cfa_offset 12
 108              		.cfi_offset 4, -12
 109              		.cfi_offset 5, -8
 110              		.cfi_offset 6, -4
 111              	.LVL10:
 534:ff.c          **** 	const BYTE *d = (const BYTE *)dst, *s = (const BYTE *)src;
 535:ff.c          **** 	int r = 0;
 112              		.loc 1 535 0
 113 0002 0023     		movs	r3, #0
 536:ff.c          **** 
 537:ff.c          **** 	while (cnt-- && (r = *d++ - *s++) == 0) ;
 114              		.loc 1 537 0
 115 0004 01E0     		b	.L9
 116              	.LVL11:
 117              	.L10:
 118 0006 2946     		mov	r1, r5
 119 0008 3046     		mov	r0, r6
 120              	.LVL12:
 121              	.L9:
 122              		.loc 1 537 0 is_stmt 0 discriminator 2
 123 000a 541E     		subs	r4, r2, #1
 124              	.LVL13:
 125 000c 32B1     		cbz	r2, .L8
 126              		.loc 1 537 0 discriminator 1
 127 000e 461C     		adds	r6, r0, #1
 128              	.LVL14:
 129 0010 0378     		ldrb	r3, [r0]	@ zero_extendqisi2
 130              	.LVL15:
 131 0012 4D1C     		adds	r5, r1, #1
 132              	.LVL16:
 133 0014 0878     		ldrb	r0, [r1]	@ zero_extendqisi2
 134              	.LVL17:
 135 0016 2246     		mov	r2, r4
 136 0018 1B1A     		subs	r3, r3, r0
 137              	.LVL18:
 138 001a F4D0     		beq	.L10
 139              	.LVL19:
 140              	.L8:
 538:ff.c          **** 	return r;
 539:ff.c          **** }
 141              		.loc 1 539 0 is_stmt 1
ARM GAS  C:\Users\linar\AppData\Local\Temp\ccAaFYxm.s 			page 13


 142 001c 1846     		mov	r0, r3
 143 001e 70BC     		pop	{r4, r5, r6}
 144              		.cfi_restore 6
 145              		.cfi_restore 5
 146              		.cfi_restore 4
 147              		.cfi_def_cfa_offset 0
 148              	.LVL20:
 149 0020 7047     		bx	lr
 150              		.cfi_endproc
 151              	.LFE2:
 152              		.size	mem_cmp, .-mem_cmp
 153 0022 00BF     		.section	.text.chk_chr,"ax",%progbits
 154              		.align	2
 155              		.thumb
 156              		.thumb_func
 157              		.type	chk_chr, %function
 158              	chk_chr:
 159              	.LFB3:
 540:ff.c          **** 
 541:ff.c          **** /* Check if chr is contained in the string */
 542:ff.c          **** static
 543:ff.c          **** int chk_chr (const char* str, int chr) {
 160              		.loc 1 543 0
 161              		.cfi_startproc
 162              		@ args = 0, pretend = 0, frame = 0
 163              		@ frame_needed = 0, uses_anonymous_args = 0
 164              		@ link register save eliminated.
 165              	.LVL21:
 544:ff.c          **** 	while (*str && *str != chr) str++;
 166              		.loc 1 544 0
 167 0000 00E0     		b	.L13
 168              	.L15:
 169              		.loc 1 544 0 is_stmt 0 discriminator 3
 170 0002 0130     		adds	r0, r0, #1
 171              	.LVL22:
 172              	.L13:
 173              		.loc 1 544 0 discriminator 1
 174 0004 0378     		ldrb	r3, [r0]	@ zero_extendqisi2
 175 0006 0BB1     		cbz	r3, .L14
 176              		.loc 1 544 0 discriminator 2
 177 0008 8B42     		cmp	r3, r1
 178 000a FAD1     		bne	.L15
 179              	.L14:
 545:ff.c          **** 	return *str;
 546:ff.c          **** }
 180              		.loc 1 546 0 is_stmt 1
 181 000c 1846     		mov	r0, r3
 182              	.LVL23:
 183 000e 7047     		bx	lr
 184              		.cfi_endproc
 185              	.LFE3:
 186              		.size	chk_chr, .-chk_chr
 187              		.section	.text.ld_clust,"ax",%progbits
 188              		.align	2
 189              		.thumb
 190              		.thumb_func
 191              		.type	ld_clust, %function
ARM GAS  C:\Users\linar\AppData\Local\Temp\ccAaFYxm.s 			page 14


 192              	ld_clust:
 193              	.LFB15:
 547:ff.c          **** 
 548:ff.c          **** 
 549:ff.c          **** 
 550:ff.c          **** 
 551:ff.c          **** /*-----------------------------------------------------------------------*/
 552:ff.c          **** /* Request/Release grant to access the volume                            */
 553:ff.c          **** /*-----------------------------------------------------------------------*/
 554:ff.c          **** #if _FS_REENTRANT
 555:ff.c          **** static
 556:ff.c          **** int lock_fs (
 557:ff.c          **** 	FATFS* fs		/* File system object */
 558:ff.c          **** )
 559:ff.c          **** {
 560:ff.c          **** 	return ff_req_grant(fs->sobj);
 561:ff.c          **** }
 562:ff.c          **** 
 563:ff.c          **** 
 564:ff.c          **** static
 565:ff.c          **** void unlock_fs (
 566:ff.c          **** 	FATFS* fs,		/* File system object */
 567:ff.c          **** 	FRESULT res		/* Result code to be returned */
 568:ff.c          **** )
 569:ff.c          **** {
 570:ff.c          **** 	if (fs &&
 571:ff.c          **** 		res != FR_NOT_ENABLED &&
 572:ff.c          **** 		res != FR_INVALID_DRIVE &&
 573:ff.c          **** 		res != FR_INVALID_OBJECT &&
 574:ff.c          **** 		res != FR_TIMEOUT) {
 575:ff.c          **** 		ff_rel_grant(fs->sobj);
 576:ff.c          **** 	}
 577:ff.c          **** }
 578:ff.c          **** #endif
 579:ff.c          **** 
 580:ff.c          **** 
 581:ff.c          **** 
 582:ff.c          **** 
 583:ff.c          **** /*-----------------------------------------------------------------------*/
 584:ff.c          **** /* File lock control functions                                           */
 585:ff.c          **** /*-----------------------------------------------------------------------*/
 586:ff.c          **** #if _FS_LOCK
 587:ff.c          **** 
 588:ff.c          **** static
 589:ff.c          **** FRESULT chk_lock (	/* Check if the file can be accessed */
 590:ff.c          **** 	DIR* dp,		/* Directory object pointing the file to be checked */
 591:ff.c          **** 	int acc			/* Desired access type (0:Read, 1:Write, 2:Delete/Rename) */
 592:ff.c          **** )
 593:ff.c          **** {
 594:ff.c          **** 	UINT i, be;
 595:ff.c          **** 
 596:ff.c          **** 	/* Search file semaphore table */
 597:ff.c          **** 	for (i = be = 0; i < _FS_LOCK; i++) {
 598:ff.c          **** 		if (Files[i].fs) {	/* Existing entry */
 599:ff.c          **** 			if (Files[i].fs == dp->fs &&	 	/* Check if the object matched with an open object */
 600:ff.c          **** 				Files[i].clu == dp->sclust &&
 601:ff.c          **** 				Files[i].idx == dp->index) break;
ARM GAS  C:\Users\linar\AppData\Local\Temp\ccAaFYxm.s 			page 15


 602:ff.c          **** 		} else {			/* Blank entry */
 603:ff.c          **** 			be = 1;
 604:ff.c          **** 		}
 605:ff.c          **** 	}
 606:ff.c          **** 	if (i == _FS_LOCK)	/* The object is not opened */
 607:ff.c          **** 		return (be || acc == 2) ? FR_OK : FR_TOO_MANY_OPEN_FILES;	/* Is there a blank entry for new objec
 608:ff.c          **** 
 609:ff.c          **** 	/* The object has been opened. Reject any open against writing file and all write mode open */
 610:ff.c          **** 	return (acc || Files[i].ctr == 0x100) ? FR_LOCKED : FR_OK;
 611:ff.c          **** }
 612:ff.c          **** 
 613:ff.c          **** 
 614:ff.c          **** static
 615:ff.c          **** int enq_lock (void)	/* Check if an entry is available for a new object */
 616:ff.c          **** {
 617:ff.c          **** 	UINT i;
 618:ff.c          **** 
 619:ff.c          **** 	for (i = 0; i < _FS_LOCK && Files[i].fs; i++) ;
 620:ff.c          **** 	return (i == _FS_LOCK) ? 0 : 1;
 621:ff.c          **** }
 622:ff.c          **** 
 623:ff.c          **** 
 624:ff.c          **** static
 625:ff.c          **** UINT inc_lock (	/* Increment object open counter and returns its index (0:Internal error) */
 626:ff.c          **** 	DIR* dp,	/* Directory object pointing the file to register or increment */
 627:ff.c          **** 	int acc		/* Desired access (0:Read, 1:Write, 2:Delete/Rename) */
 628:ff.c          **** )
 629:ff.c          **** {
 630:ff.c          **** 	UINT i;
 631:ff.c          **** 
 632:ff.c          **** 
 633:ff.c          **** 	for (i = 0; i < _FS_LOCK; i++) {	/* Find the object */
 634:ff.c          **** 		if (Files[i].fs == dp->fs &&
 635:ff.c          **** 			Files[i].clu == dp->sclust &&
 636:ff.c          **** 			Files[i].idx == dp->index) break;
 637:ff.c          **** 	}
 638:ff.c          **** 
 639:ff.c          **** 	if (i == _FS_LOCK) {				/* Not opened. Register it as new. */
 640:ff.c          **** 		for (i = 0; i < _FS_LOCK && Files[i].fs; i++) ;
 641:ff.c          **** 		if (i == _FS_LOCK) return 0;	/* No free entry to register (int err) */
 642:ff.c          **** 		Files[i].fs = dp->fs;
 643:ff.c          **** 		Files[i].clu = dp->sclust;
 644:ff.c          **** 		Files[i].idx = dp->index;
 645:ff.c          **** 		Files[i].ctr = 0;
 646:ff.c          **** 	}
 647:ff.c          **** 
 648:ff.c          **** 	if (acc && Files[i].ctr) return 0;	/* Access violation (int err) */
 649:ff.c          **** 
 650:ff.c          **** 	Files[i].ctr = acc ? 0x100 : Files[i].ctr + 1;	/* Set semaphore value */
 651:ff.c          **** 
 652:ff.c          **** 	return i + 1;
 653:ff.c          **** }
 654:ff.c          **** 
 655:ff.c          **** 
 656:ff.c          **** static
 657:ff.c          **** FRESULT dec_lock (	/* Decrement object open counter */
 658:ff.c          **** 	UINT i			/* Semaphore index (1..) */
ARM GAS  C:\Users\linar\AppData\Local\Temp\ccAaFYxm.s 			page 16


 659:ff.c          **** )
 660:ff.c          **** {
 661:ff.c          **** 	WORD n;
 662:ff.c          **** 	FRESULT res;
 663:ff.c          **** 
 664:ff.c          **** 
 665:ff.c          **** 	if (--i < _FS_LOCK) {	/* Shift index number origin from 0 */
 666:ff.c          **** 		n = Files[i].ctr;
 667:ff.c          **** 		if (n == 0x100) n = 0;		/* If write mode open, delete the entry */
 668:ff.c          **** 		if (n) n--;					/* Decrement read mode open count */
 669:ff.c          **** 		Files[i].ctr = n;
 670:ff.c          **** 		if (!n) Files[i].fs = 0;	/* Delete the entry if open count gets zero */
 671:ff.c          **** 		res = FR_OK;
 672:ff.c          **** 	} else {
 673:ff.c          **** 		res = FR_INT_ERR;			/* Invalid index nunber */
 674:ff.c          **** 	}
 675:ff.c          **** 	return res;
 676:ff.c          **** }
 677:ff.c          **** 
 678:ff.c          **** 
 679:ff.c          **** static
 680:ff.c          **** void clear_lock (	/* Clear lock entries of the volume */
 681:ff.c          **** 	FATFS *fs
 682:ff.c          **** )
 683:ff.c          **** {
 684:ff.c          **** 	UINT i;
 685:ff.c          **** 
 686:ff.c          **** 	for (i = 0; i < _FS_LOCK; i++) {
 687:ff.c          **** 		if (Files[i].fs == fs) Files[i].fs = 0;
 688:ff.c          **** 	}
 689:ff.c          **** }
 690:ff.c          **** #endif
 691:ff.c          **** 
 692:ff.c          **** 
 693:ff.c          **** 
 694:ff.c          **** 
 695:ff.c          **** /*-----------------------------------------------------------------------*/
 696:ff.c          **** /* Move/Flush disk access window in the file system object               */
 697:ff.c          **** /*-----------------------------------------------------------------------*/
 698:ff.c          **** #if !_FS_READONLY
 699:ff.c          **** static
 700:ff.c          **** FRESULT sync_window (	/* FR_OK:succeeded, !=0:error */
 701:ff.c          **** 	FATFS* fs		/* File system object */
 702:ff.c          **** )
 703:ff.c          **** {
 704:ff.c          **** 	DWORD wsect;
 705:ff.c          **** 	UINT nf;
 706:ff.c          **** 	FRESULT res = FR_OK;
 707:ff.c          **** 
 708:ff.c          **** 
 709:ff.c          **** 	if (fs->wflag) {	/* Write back the sector if it is dirty */
 710:ff.c          **** 		wsect = fs->winsect;	/* Current sector number */
 711:ff.c          **** 		if (disk_write(fs->drv, fs->win, wsect, 1) != RES_OK) {
 712:ff.c          **** 			res = FR_DISK_ERR;
 713:ff.c          **** 		} else {
 714:ff.c          **** 			fs->wflag = 0;
 715:ff.c          **** 			if (wsect - fs->fatbase < fs->fsize) {		/* Is it in the FAT area? */
ARM GAS  C:\Users\linar\AppData\Local\Temp\ccAaFYxm.s 			page 17


 716:ff.c          **** 				for (nf = fs->n_fats; nf >= 2; nf--) {	/* Reflect the change to all FAT copies */
 717:ff.c          **** 					wsect += fs->fsize;
 718:ff.c          **** 					disk_write(fs->drv, fs->win, wsect, 1);
 719:ff.c          **** 				}
 720:ff.c          **** 			}
 721:ff.c          **** 		}
 722:ff.c          **** 	}
 723:ff.c          **** 	return res;
 724:ff.c          **** }
 725:ff.c          **** #endif
 726:ff.c          **** 
 727:ff.c          **** 
 728:ff.c          **** static
 729:ff.c          **** FRESULT move_window (	/* FR_OK(0):succeeded, !=0:error */
 730:ff.c          **** 	FATFS* fs,		/* File system object */
 731:ff.c          **** 	DWORD sector	/* Sector number to make appearance in the fs->win[] */
 732:ff.c          **** )
 733:ff.c          **** {
 734:ff.c          **** 	FRESULT res = FR_OK;
 735:ff.c          **** 
 736:ff.c          **** 
 737:ff.c          **** 	if (sector != fs->winsect) {	/* Window offset changed? */
 738:ff.c          **** #if !_FS_READONLY
 739:ff.c          **** 		res = sync_window(fs);		/* Write-back changes */
 740:ff.c          **** #endif
 741:ff.c          **** 		if (res == FR_OK) {			/* Fill sector window with new data */
 742:ff.c          **** 			if (disk_read(fs->drv, fs->win, sector, 1) != RES_OK) {
 743:ff.c          **** 				sector = 0xFFFFFFFF;	/* Invalidate window if data is not reliable */
 744:ff.c          **** 				res = FR_DISK_ERR;
 745:ff.c          **** 			}
 746:ff.c          **** 			fs->winsect = sector;
 747:ff.c          **** 		}
 748:ff.c          **** 	}
 749:ff.c          **** 	return res;
 750:ff.c          **** }
 751:ff.c          **** 
 752:ff.c          **** 
 753:ff.c          **** 
 754:ff.c          **** 
 755:ff.c          **** /*-----------------------------------------------------------------------*/
 756:ff.c          **** /* Synchronize file system and strage device                             */
 757:ff.c          **** /*-----------------------------------------------------------------------*/
 758:ff.c          **** #if !_FS_READONLY
 759:ff.c          **** static
 760:ff.c          **** FRESULT sync_fs (	/* FR_OK:succeeded, !=0:error */
 761:ff.c          **** 	FATFS* fs		/* File system object */
 762:ff.c          **** )
 763:ff.c          **** {
 764:ff.c          **** 	FRESULT res;
 765:ff.c          **** 
 766:ff.c          **** 
 767:ff.c          **** 	res = sync_window(fs);
 768:ff.c          **** 	if (res == FR_OK) {
 769:ff.c          **** 		/* Update FSInfo sector if needed */
 770:ff.c          **** 		if (fs->fs_type == FS_FAT32 && fs->fsi_flag == 1) {
 771:ff.c          **** 			/* Create FSInfo structure */
 772:ff.c          **** 			mem_set(fs->win, 0, SS(fs));
ARM GAS  C:\Users\linar\AppData\Local\Temp\ccAaFYxm.s 			page 18


 773:ff.c          **** 			ST_WORD(fs->win + BS_55AA, 0xAA55);
 774:ff.c          **** 			ST_DWORD(fs->win + FSI_LeadSig, 0x41615252);
 775:ff.c          **** 			ST_DWORD(fs->win + FSI_StrucSig, 0x61417272);
 776:ff.c          **** 			ST_DWORD(fs->win + FSI_Free_Count, fs->free_clust);
 777:ff.c          **** 			ST_DWORD(fs->win + FSI_Nxt_Free, fs->last_clust);
 778:ff.c          **** 			/* Write it into the FSInfo sector */
 779:ff.c          **** 			fs->winsect = fs->volbase + 1;
 780:ff.c          **** 			disk_write(fs->drv, fs->win, fs->winsect, 1);
 781:ff.c          **** 			fs->fsi_flag = 0;
 782:ff.c          **** 		}
 783:ff.c          **** 		/* Make sure that no pending write process in the physical drive */
 784:ff.c          **** 		if (disk_ioctl(fs->drv, CTRL_SYNC, 0) != RES_OK)
 785:ff.c          **** 			res = FR_DISK_ERR;
 786:ff.c          **** 	}
 787:ff.c          **** 
 788:ff.c          **** 	return res;
 789:ff.c          **** }
 790:ff.c          **** #endif
 791:ff.c          **** 
 792:ff.c          **** 
 793:ff.c          **** 
 794:ff.c          **** 
 795:ff.c          **** /*-----------------------------------------------------------------------*/
 796:ff.c          **** /* Get sector# from cluster#                                             */
 797:ff.c          **** /*-----------------------------------------------------------------------*/
 798:ff.c          **** /* Hidden API for hacks and disk tools */
 799:ff.c          **** 
 800:ff.c          **** DWORD clust2sect (	/* !=0:Sector number, 0:Failed (invalid cluster#) */
 801:ff.c          **** 	FATFS* fs,		/* File system object */
 802:ff.c          **** 	DWORD clst		/* Cluster# to be converted */
 803:ff.c          **** )
 804:ff.c          **** {
 805:ff.c          **** 	clst -= 2;
 806:ff.c          **** 	if (clst >= fs->n_fatent - 2) return 0;		/* Invalid cluster# */
 807:ff.c          **** 	return clst * fs->csize + fs->database;
 808:ff.c          **** }
 809:ff.c          **** 
 810:ff.c          **** 
 811:ff.c          **** 
 812:ff.c          **** 
 813:ff.c          **** /*-----------------------------------------------------------------------*/
 814:ff.c          **** /* FAT access - Read value of a FAT entry                                */
 815:ff.c          **** /*-----------------------------------------------------------------------*/
 816:ff.c          **** /* Hidden API for hacks and disk tools */
 817:ff.c          **** 
 818:ff.c          **** DWORD get_fat (	/* 0xFFFFFFFF:Disk error, 1:Internal error, 2..0x0FFFFFFF:Cluster status */
 819:ff.c          **** 	FATFS* fs,	/* File system object */
 820:ff.c          **** 	DWORD clst	/* FAT index number (cluster number) to get the value */
 821:ff.c          **** )
 822:ff.c          **** {
 823:ff.c          **** 	UINT wc, bc;
 824:ff.c          **** 	BYTE *p;
 825:ff.c          **** 	DWORD val;
 826:ff.c          **** 
 827:ff.c          **** 
 828:ff.c          **** 	if (clst < 2 || clst >= fs->n_fatent) {	/* Check if in valid range */
 829:ff.c          **** 		val = 1;	/* Internal error */
ARM GAS  C:\Users\linar\AppData\Local\Temp\ccAaFYxm.s 			page 19


 830:ff.c          **** 
 831:ff.c          **** 	} else {
 832:ff.c          **** 		val = 0xFFFFFFFF;	/* Default value falls on disk error */
 833:ff.c          **** 
 834:ff.c          **** 		switch (fs->fs_type) {
 835:ff.c          **** 		case FS_FAT12 :
 836:ff.c          **** 			bc = (UINT)clst; bc += bc / 2;
 837:ff.c          **** 			if (move_window(fs, fs->fatbase + (bc / SS(fs))) != FR_OK) break;
 838:ff.c          **** 			wc = fs->win[bc++ % SS(fs)];
 839:ff.c          **** 			if (move_window(fs, fs->fatbase + (bc / SS(fs))) != FR_OK) break;
 840:ff.c          **** 			wc |= fs->win[bc % SS(fs)] << 8;
 841:ff.c          **** 			val = clst & 1 ? wc >> 4 : (wc & 0xFFF);
 842:ff.c          **** 			break;
 843:ff.c          **** 
 844:ff.c          **** 		case FS_FAT16 :
 845:ff.c          **** 			if (move_window(fs, fs->fatbase + (clst / (SS(fs) / 2))) != FR_OK) break;
 846:ff.c          **** 			p = &fs->win[clst * 2 % SS(fs)];
 847:ff.c          **** 			val = LD_WORD(p);
 848:ff.c          **** 			break;
 849:ff.c          **** 
 850:ff.c          **** 		case FS_FAT32 :
 851:ff.c          **** 			if (move_window(fs, fs->fatbase + (clst / (SS(fs) / 4))) != FR_OK) break;
 852:ff.c          **** 			p = &fs->win[clst * 4 % SS(fs)];
 853:ff.c          **** 			val = LD_DWORD(p) & 0x0FFFFFFF;
 854:ff.c          **** 			break;
 855:ff.c          **** 
 856:ff.c          **** 		default:
 857:ff.c          **** 			val = 1;	/* Internal error */
 858:ff.c          **** 		}
 859:ff.c          **** 	}
 860:ff.c          **** 
 861:ff.c          **** 	return val;
 862:ff.c          **** }
 863:ff.c          **** 
 864:ff.c          **** 
 865:ff.c          **** 
 866:ff.c          **** 
 867:ff.c          **** /*-----------------------------------------------------------------------*/
 868:ff.c          **** /* FAT access - Change value of a FAT entry                              */
 869:ff.c          **** /*-----------------------------------------------------------------------*/
 870:ff.c          **** /* Hidden API for hacks and disk tools */
 871:ff.c          **** 
 872:ff.c          **** #if !_FS_READONLY
 873:ff.c          **** FRESULT put_fat (	/* FR_OK(0):succeeded, !=0:error */
 874:ff.c          **** 	FATFS* fs,		/* File system object */
 875:ff.c          **** 	DWORD clst,		/* FAT index number (cluster number) to be changed */
 876:ff.c          **** 	DWORD val		/* New value to be set to the entry */
 877:ff.c          **** )
 878:ff.c          **** {
 879:ff.c          **** 	UINT bc;
 880:ff.c          **** 	BYTE *p;
 881:ff.c          **** 	FRESULT res;
 882:ff.c          **** 
 883:ff.c          **** 
 884:ff.c          **** 	if (clst < 2 || clst >= fs->n_fatent) {	/* Check if in valid range */
 885:ff.c          **** 		res = FR_INT_ERR;
 886:ff.c          **** 
ARM GAS  C:\Users\linar\AppData\Local\Temp\ccAaFYxm.s 			page 20


 887:ff.c          **** 	} else {
 888:ff.c          **** 		switch (fs->fs_type) {
 889:ff.c          **** 		case FS_FAT12 :
 890:ff.c          **** 			bc = (UINT)clst; bc += bc / 2;
 891:ff.c          **** 			res = move_window(fs, fs->fatbase + (bc / SS(fs)));
 892:ff.c          **** 			if (res != FR_OK) break;
 893:ff.c          **** 			p = &fs->win[bc++ % SS(fs)];
 894:ff.c          **** 			*p = (clst & 1) ? ((*p & 0x0F) | ((BYTE)val << 4)) : (BYTE)val;
 895:ff.c          **** 			fs->wflag = 1;
 896:ff.c          **** 			res = move_window(fs, fs->fatbase + (bc / SS(fs)));
 897:ff.c          **** 			if (res != FR_OK) break;
 898:ff.c          **** 			p = &fs->win[bc % SS(fs)];
 899:ff.c          **** 			*p = (clst & 1) ? (BYTE)(val >> 4) : ((*p & 0xF0) | ((BYTE)(val >> 8) & 0x0F));
 900:ff.c          **** 			fs->wflag = 1;
 901:ff.c          **** 			break;
 902:ff.c          **** 
 903:ff.c          **** 		case FS_FAT16 :
 904:ff.c          **** 			res = move_window(fs, fs->fatbase + (clst / (SS(fs) / 2)));
 905:ff.c          **** 			if (res != FR_OK) break;
 906:ff.c          **** 			p = &fs->win[clst * 2 % SS(fs)];
 907:ff.c          **** 			ST_WORD(p, (WORD)val);
 908:ff.c          **** 			fs->wflag = 1;
 909:ff.c          **** 			break;
 910:ff.c          **** 
 911:ff.c          **** 		case FS_FAT32 :
 912:ff.c          **** 			res = move_window(fs, fs->fatbase + (clst / (SS(fs) / 4)));
 913:ff.c          **** 			if (res != FR_OK) break;
 914:ff.c          **** 			p = &fs->win[clst * 4 % SS(fs)];
 915:ff.c          **** 			val |= LD_DWORD(p) & 0xF0000000;
 916:ff.c          **** 			ST_DWORD(p, val);
 917:ff.c          **** 			fs->wflag = 1;
 918:ff.c          **** 			break;
 919:ff.c          **** 
 920:ff.c          **** 		default :
 921:ff.c          **** 			res = FR_INT_ERR;
 922:ff.c          **** 		}
 923:ff.c          **** 	}
 924:ff.c          **** 
 925:ff.c          **** 	return res;
 926:ff.c          **** }
 927:ff.c          **** #endif /* !_FS_READONLY */
 928:ff.c          **** 
 929:ff.c          **** 
 930:ff.c          **** 
 931:ff.c          **** 
 932:ff.c          **** /*-----------------------------------------------------------------------*/
 933:ff.c          **** /* FAT handling - Remove a cluster chain                                 */
 934:ff.c          **** /*-----------------------------------------------------------------------*/
 935:ff.c          **** #if !_FS_READONLY
 936:ff.c          **** static
 937:ff.c          **** FRESULT remove_chain (	/* FR_OK(0):succeeded, !=0:error */
 938:ff.c          **** 	FATFS* fs,			/* File system object */
 939:ff.c          **** 	DWORD clst			/* Cluster# to remove a chain from */
 940:ff.c          **** )
 941:ff.c          **** {
 942:ff.c          **** 	FRESULT res;
 943:ff.c          **** 	DWORD nxt;
ARM GAS  C:\Users\linar\AppData\Local\Temp\ccAaFYxm.s 			page 21


 944:ff.c          **** #if _USE_TRIM
 945:ff.c          **** 	DWORD scl = clst, ecl = clst, rt[2];
 946:ff.c          **** #endif
 947:ff.c          **** 
 948:ff.c          **** 	if (clst < 2 || clst >= fs->n_fatent) {	/* Check if in valid range */
 949:ff.c          **** 		res = FR_INT_ERR;
 950:ff.c          **** 
 951:ff.c          **** 	} else {
 952:ff.c          **** 		res = FR_OK;
 953:ff.c          **** 		while (clst < fs->n_fatent) {			/* Not a last link? */
 954:ff.c          **** 			nxt = get_fat(fs, clst);			/* Get cluster status */
 955:ff.c          **** 			if (nxt == 0) break;				/* Empty cluster? */
 956:ff.c          **** 			if (nxt == 1) { res = FR_INT_ERR; break; }	/* Internal error? */
 957:ff.c          **** 			if (nxt == 0xFFFFFFFF) { res = FR_DISK_ERR; break; }	/* Disk error? */
 958:ff.c          **** 			res = put_fat(fs, clst, 0);			/* Mark the cluster "empty" */
 959:ff.c          **** 			if (res != FR_OK) break;
 960:ff.c          **** 			if (fs->free_clust != 0xFFFFFFFF) {	/* Update FSINFO */
 961:ff.c          **** 				fs->free_clust++;
 962:ff.c          **** 				fs->fsi_flag |= 1;
 963:ff.c          **** 			}
 964:ff.c          **** #if _USE_TRIM
 965:ff.c          **** 			if (ecl + 1 == nxt) {	/* Is next cluster contiguous? */
 966:ff.c          **** 				ecl = nxt;
 967:ff.c          **** 			} else {				/* End of contiguous clusters */ 
 968:ff.c          **** 				rt[0] = clust2sect(fs, scl);					/* Start sector */
 969:ff.c          **** 				rt[1] = clust2sect(fs, ecl) + fs->csize - 1;	/* End sector */
 970:ff.c          **** 				disk_ioctl(fs->drv, CTRL_TRIM, rt);				/* Erase the block */
 971:ff.c          **** 				scl = ecl = nxt;
 972:ff.c          **** 			}
 973:ff.c          **** #endif
 974:ff.c          **** 			clst = nxt;	/* Next cluster */
 975:ff.c          **** 		}
 976:ff.c          **** 	}
 977:ff.c          **** 
 978:ff.c          **** 	return res;
 979:ff.c          **** }
 980:ff.c          **** #endif
 981:ff.c          **** 
 982:ff.c          **** 
 983:ff.c          **** 
 984:ff.c          **** 
 985:ff.c          **** /*-----------------------------------------------------------------------*/
 986:ff.c          **** /* FAT handling - Stretch or Create a cluster chain                      */
 987:ff.c          **** /*-----------------------------------------------------------------------*/
 988:ff.c          **** #if !_FS_READONLY
 989:ff.c          **** static
 990:ff.c          **** DWORD create_chain (	/* 0:No free cluster, 1:Internal error, 0xFFFFFFFF:Disk error, >=2:New cluster
 991:ff.c          **** 	FATFS* fs,			/* File system object */
 992:ff.c          **** 	DWORD clst			/* Cluster# to stretch, 0:Create a new chain */
 993:ff.c          **** )
 994:ff.c          **** {
 995:ff.c          **** 	DWORD cs, ncl, scl;
 996:ff.c          **** 	FRESULT res;
 997:ff.c          **** 
 998:ff.c          **** 
 999:ff.c          **** 	if (clst == 0) {		/* Create a new chain */
1000:ff.c          **** 		scl = fs->last_clust;			/* Get suggested start point */
ARM GAS  C:\Users\linar\AppData\Local\Temp\ccAaFYxm.s 			page 22


1001:ff.c          **** 		if (!scl || scl >= fs->n_fatent) scl = 1;
1002:ff.c          **** 	}
1003:ff.c          **** 	else {					/* Stretch the current chain */
1004:ff.c          **** 		cs = get_fat(fs, clst);			/* Check the cluster status */
1005:ff.c          **** 		if (cs < 2) return 1;			/* Invalid value */
1006:ff.c          **** 		if (cs == 0xFFFFFFFF) return cs;	/* A disk error occurred */
1007:ff.c          **** 		if (cs < fs->n_fatent) return cs;	/* It is already followed by next cluster */
1008:ff.c          **** 		scl = clst;
1009:ff.c          **** 	}
1010:ff.c          **** 
1011:ff.c          **** 	ncl = scl;				/* Start cluster */
1012:ff.c          **** 	for (;;) {
1013:ff.c          **** 		ncl++;							/* Next cluster */
1014:ff.c          **** 		if (ncl >= fs->n_fatent) {		/* Check wrap around */
1015:ff.c          **** 			ncl = 2;
1016:ff.c          **** 			if (ncl > scl) return 0;	/* No free cluster */
1017:ff.c          **** 		}
1018:ff.c          **** 		cs = get_fat(fs, ncl);			/* Get the cluster status */
1019:ff.c          **** 		if (cs == 0) break;				/* Found a free cluster */
1020:ff.c          **** 		if (cs == 0xFFFFFFFF || cs == 1)/* An error occurred */
1021:ff.c          **** 			return cs;
1022:ff.c          **** 		if (ncl == scl) return 0;		/* No free cluster */
1023:ff.c          **** 	}
1024:ff.c          **** 
1025:ff.c          **** 	res = put_fat(fs, ncl, 0x0FFFFFFF);	/* Mark the new cluster "last link" */
1026:ff.c          **** 	if (res == FR_OK && clst != 0) {
1027:ff.c          **** 		res = put_fat(fs, clst, ncl);	/* Link it to the previous one if needed */
1028:ff.c          **** 	}
1029:ff.c          **** 	if (res == FR_OK) {
1030:ff.c          **** 		fs->last_clust = ncl;			/* Update FSINFO */
1031:ff.c          **** 		if (fs->free_clust != 0xFFFFFFFF) {
1032:ff.c          **** 			fs->free_clust--;
1033:ff.c          **** 			fs->fsi_flag |= 1;
1034:ff.c          **** 		}
1035:ff.c          **** 	} else {
1036:ff.c          **** 		ncl = (res == FR_DISK_ERR) ? 0xFFFFFFFF : 1;
1037:ff.c          **** 	}
1038:ff.c          **** 
1039:ff.c          **** 	return ncl;		/* Return new cluster number or error code */
1040:ff.c          **** }
1041:ff.c          **** #endif /* !_FS_READONLY */
1042:ff.c          **** 
1043:ff.c          **** 
1044:ff.c          **** 
1045:ff.c          **** 
1046:ff.c          **** /*-----------------------------------------------------------------------*/
1047:ff.c          **** /* FAT handling - Convert offset into cluster with link map table        */
1048:ff.c          **** /*-----------------------------------------------------------------------*/
1049:ff.c          **** 
1050:ff.c          **** #if _USE_FASTSEEK
1051:ff.c          **** static
1052:ff.c          **** DWORD clmt_clust (	/* <2:Error, >=2:Cluster number */
1053:ff.c          **** 	FIL* fp,		/* Pointer to the file object */
1054:ff.c          **** 	DWORD ofs		/* File offset to be converted to cluster# */
1055:ff.c          **** )
1056:ff.c          **** {
1057:ff.c          **** 	DWORD cl, ncl, *tbl;
ARM GAS  C:\Users\linar\AppData\Local\Temp\ccAaFYxm.s 			page 23


1058:ff.c          **** 
1059:ff.c          **** 
1060:ff.c          **** 	tbl = fp->cltbl + 1;	/* Top of CLMT */
1061:ff.c          **** 	cl = ofs / SS(fp->fs) / fp->fs->csize;	/* Cluster order from top of the file */
1062:ff.c          **** 	for (;;) {
1063:ff.c          **** 		ncl = *tbl++;			/* Number of cluters in the fragment */
1064:ff.c          **** 		if (!ncl) return 0;		/* End of table? (error) */
1065:ff.c          **** 		if (cl < ncl) break;	/* In this fragment? */
1066:ff.c          **** 		cl -= ncl; tbl++;		/* Next fragment */
1067:ff.c          **** 	}
1068:ff.c          **** 	return cl + *tbl;	/* Return the cluster number */
1069:ff.c          **** }
1070:ff.c          **** #endif	/* _USE_FASTSEEK */
1071:ff.c          **** 
1072:ff.c          **** 
1073:ff.c          **** 
1074:ff.c          **** 
1075:ff.c          **** /*-----------------------------------------------------------------------*/
1076:ff.c          **** /* Directory handling - Set directory index                              */
1077:ff.c          **** /*-----------------------------------------------------------------------*/
1078:ff.c          **** 
1079:ff.c          **** static
1080:ff.c          **** FRESULT dir_sdi (	/* FR_OK(0):succeeded, !=0:error */
1081:ff.c          **** 	DIR* dp,		/* Pointer to directory object */
1082:ff.c          **** 	UINT idx		/* Index of directory table */
1083:ff.c          **** )
1084:ff.c          **** {
1085:ff.c          **** 	DWORD clst, sect;
1086:ff.c          **** 	UINT ic;
1087:ff.c          **** 
1088:ff.c          **** 
1089:ff.c          **** 	dp->index = (WORD)idx;	/* Current index */
1090:ff.c          **** 	clst = dp->sclust;		/* Table start cluster (0:root) */
1091:ff.c          **** 	if (clst == 1 || clst >= dp->fs->n_fatent)	/* Check start cluster range */
1092:ff.c          **** 		return FR_INT_ERR;
1093:ff.c          **** 	if (!clst && dp->fs->fs_type == FS_FAT32)	/* Replace cluster# 0 with root cluster# if in FAT32 */
1094:ff.c          **** 		clst = dp->fs->dirbase;
1095:ff.c          **** 
1096:ff.c          **** 	if (clst == 0) {	/* Static table (root-directory in FAT12/16) */
1097:ff.c          **** 		if (idx >= dp->fs->n_rootdir)	/* Is index out of range? */
1098:ff.c          **** 			return FR_INT_ERR;
1099:ff.c          **** 		sect = dp->fs->dirbase;
1100:ff.c          **** 	}
1101:ff.c          **** 	else {				/* Dynamic table (root-directory in FAT32 or sub-directory) */
1102:ff.c          **** 		ic = SS(dp->fs) / SZ_DIRE * dp->fs->csize;	/* Entries per cluster */
1103:ff.c          **** 		while (idx >= ic) {	/* Follow cluster chain */
1104:ff.c          **** 			clst = get_fat(dp->fs, clst);				/* Get next cluster */
1105:ff.c          **** 			if (clst == 0xFFFFFFFF) return FR_DISK_ERR;	/* Disk error */
1106:ff.c          **** 			if (clst < 2 || clst >= dp->fs->n_fatent)	/* Reached to end of table or internal error */
1107:ff.c          **** 				return FR_INT_ERR;
1108:ff.c          **** 			idx -= ic;
1109:ff.c          **** 		}
1110:ff.c          **** 		sect = clust2sect(dp->fs, clst);
1111:ff.c          **** 	}
1112:ff.c          **** 	dp->clust = clst;	/* Current cluster# */
1113:ff.c          **** 	if (!sect) return FR_INT_ERR;
1114:ff.c          **** 	dp->sect = sect + idx / (SS(dp->fs) / SZ_DIRE);					/* Sector# of the directory entry */
ARM GAS  C:\Users\linar\AppData\Local\Temp\ccAaFYxm.s 			page 24


1115:ff.c          **** 	dp->dir = dp->fs->win + (idx % (SS(dp->fs) / SZ_DIRE)) * SZ_DIRE;	/* Ptr to the entry in the secto
1116:ff.c          **** 
1117:ff.c          **** 	return FR_OK;
1118:ff.c          **** }
1119:ff.c          **** 
1120:ff.c          **** 
1121:ff.c          **** 
1122:ff.c          **** 
1123:ff.c          **** /*-----------------------------------------------------------------------*/
1124:ff.c          **** /* Directory handling - Move directory table index next                  */
1125:ff.c          **** /*-----------------------------------------------------------------------*/
1126:ff.c          **** 
1127:ff.c          **** static
1128:ff.c          **** FRESULT dir_next (	/* FR_OK(0):succeeded, FR_NO_FILE:End of table, FR_DENIED:Could not stretch */
1129:ff.c          **** 	DIR* dp,		/* Pointer to the directory object */
1130:ff.c          **** 	int stretch		/* 0: Do not stretch table, 1: Stretch table if needed */
1131:ff.c          **** )
1132:ff.c          **** {
1133:ff.c          **** 	DWORD clst;
1134:ff.c          **** 	UINT i;
1135:ff.c          **** #if !_FS_READONLY
1136:ff.c          **** 	UINT c;
1137:ff.c          **** #endif
1138:ff.c          **** 
1139:ff.c          **** 
1140:ff.c          **** 	i = dp->index + 1;
1141:ff.c          **** 	if (!(i & 0xFFFF) || !dp->sect)	/* Report EOT when index has reached 65535 */
1142:ff.c          **** 		return FR_NO_FILE;
1143:ff.c          **** 
1144:ff.c          **** 	if (!(i % (SS(dp->fs) / SZ_DIRE))) {	/* Sector changed? */
1145:ff.c          **** 		dp->sect++;					/* Next sector */
1146:ff.c          **** 
1147:ff.c          **** 		if (!dp->clust) {		/* Static table */
1148:ff.c          **** 			if (i >= dp->fs->n_rootdir)	/* Report EOT if it reached end of static table */
1149:ff.c          **** 				return FR_NO_FILE;
1150:ff.c          **** 		}
1151:ff.c          **** 		else {					/* Dynamic table */
1152:ff.c          **** 			if (((i / (SS(dp->fs) / SZ_DIRE)) & (dp->fs->csize - 1)) == 0) {	/* Cluster changed? */
1153:ff.c          **** 				clst = get_fat(dp->fs, dp->clust);				/* Get next cluster */
1154:ff.c          **** 				if (clst <= 1) return FR_INT_ERR;
1155:ff.c          **** 				if (clst == 0xFFFFFFFF) return FR_DISK_ERR;
1156:ff.c          **** 				if (clst >= dp->fs->n_fatent) {					/* If it reached end of dynamic table, */
1157:ff.c          **** #if !_FS_READONLY
1158:ff.c          **** 					if (!stretch) return FR_NO_FILE;			/* If do not stretch, report EOT */
1159:ff.c          **** 					clst = create_chain(dp->fs, dp->clust);		/* Stretch cluster chain */
1160:ff.c          **** 					if (clst == 0) return FR_DENIED;			/* No free cluster */
1161:ff.c          **** 					if (clst == 1) return FR_INT_ERR;
1162:ff.c          **** 					if (clst == 0xFFFFFFFF) return FR_DISK_ERR;
1163:ff.c          **** 					/* Clean-up stretched table */
1164:ff.c          **** 					if (sync_window(dp->fs)) return FR_DISK_ERR;/* Flush disk access window */
1165:ff.c          **** 					mem_set(dp->fs->win, 0, SS(dp->fs));		/* Clear window buffer */
1166:ff.c          **** 					dp->fs->winsect = clust2sect(dp->fs, clst);	/* Cluster start sector */
1167:ff.c          **** 					for (c = 0; c < dp->fs->csize; c++) {		/* Fill the new cluster with 0 */
1168:ff.c          **** 						dp->fs->wflag = 1;
1169:ff.c          **** 						if (sync_window(dp->fs)) return FR_DISK_ERR;
1170:ff.c          **** 						dp->fs->winsect++;
1171:ff.c          **** 					}
ARM GAS  C:\Users\linar\AppData\Local\Temp\ccAaFYxm.s 			page 25


1172:ff.c          **** 					dp->fs->winsect -= c;						/* Rewind window offset */
1173:ff.c          **** #else
1174:ff.c          **** 					if (!stretch) return FR_NO_FILE;			/* If do not stretch, report EOT (this is to suppress warni
1175:ff.c          **** 					return FR_NO_FILE;							/* Report EOT */
1176:ff.c          **** #endif
1177:ff.c          **** 				}
1178:ff.c          **** 				dp->clust = clst;				/* Initialize data for new cluster */
1179:ff.c          **** 				dp->sect = clust2sect(dp->fs, clst);
1180:ff.c          **** 			}
1181:ff.c          **** 		}
1182:ff.c          **** 	}
1183:ff.c          **** 
1184:ff.c          **** 	dp->index = (WORD)i;	/* Current index */
1185:ff.c          **** 	dp->dir = dp->fs->win + (i % (SS(dp->fs) / SZ_DIRE)) * SZ_DIRE;	/* Current entry in the window */
1186:ff.c          **** 
1187:ff.c          **** 	return FR_OK;
1188:ff.c          **** }
1189:ff.c          **** 
1190:ff.c          **** 
1191:ff.c          **** 
1192:ff.c          **** 
1193:ff.c          **** /*-----------------------------------------------------------------------*/
1194:ff.c          **** /* Directory handling - Reserve directory entry                          */
1195:ff.c          **** /*-----------------------------------------------------------------------*/
1196:ff.c          **** 
1197:ff.c          **** #if !_FS_READONLY
1198:ff.c          **** static
1199:ff.c          **** FRESULT dir_alloc (	/* FR_OK(0):succeeded, !=0:error */
1200:ff.c          **** 	DIR* dp,		/* Pointer to the directory object */
1201:ff.c          **** 	UINT nent		/* Number of contiguous entries to allocate (1-21) */
1202:ff.c          **** )
1203:ff.c          **** {
1204:ff.c          **** 	FRESULT res;
1205:ff.c          **** 	UINT n;
1206:ff.c          **** 
1207:ff.c          **** 
1208:ff.c          **** 	res = dir_sdi(dp, 0);
1209:ff.c          **** 	if (res == FR_OK) {
1210:ff.c          **** 		n = 0;
1211:ff.c          **** 		do {
1212:ff.c          **** 			res = move_window(dp->fs, dp->sect);
1213:ff.c          **** 			if (res != FR_OK) break;
1214:ff.c          **** 			if (dp->dir[0] == DDEM || dp->dir[0] == 0) {	/* Is it a free entry? */
1215:ff.c          **** 				if (++n == nent) break;	/* A block of contiguous free entries is found */
1216:ff.c          **** 			} else {
1217:ff.c          **** 				n = 0;					/* Not a blank entry. Restart to search */
1218:ff.c          **** 			}
1219:ff.c          **** 			res = dir_next(dp, 1);		/* Next entry with table stretch enabled */
1220:ff.c          **** 		} while (res == FR_OK);
1221:ff.c          **** 	}
1222:ff.c          **** 	if (res == FR_NO_FILE) res = FR_DENIED;	/* No directory entry to allocate */
1223:ff.c          **** 	return res;
1224:ff.c          **** }
1225:ff.c          **** #endif
1226:ff.c          **** 
1227:ff.c          **** 
1228:ff.c          **** 
ARM GAS  C:\Users\linar\AppData\Local\Temp\ccAaFYxm.s 			page 26


1229:ff.c          **** 
1230:ff.c          **** /*-----------------------------------------------------------------------*/
1231:ff.c          **** /* Directory handling - Load/Store start cluster number                  */
1232:ff.c          **** /*-----------------------------------------------------------------------*/
1233:ff.c          **** 
1234:ff.c          **** static
1235:ff.c          **** DWORD ld_clust (	/* Returns the top cluster value of the SFN entry */
1236:ff.c          **** 	FATFS* fs,		/* Pointer to the fs object */
1237:ff.c          **** 	const BYTE* dir	/* Pointer to the SFN entry */
1238:ff.c          **** )
1239:ff.c          **** {
 194              		.loc 1 1239 0
 195              		.cfi_startproc
 196              		@ args = 0, pretend = 0, frame = 0
 197              		@ frame_needed = 0, uses_anonymous_args = 0
 198              		@ link register save eliminated.
 199              	.LVL24:
1240:ff.c          **** 	DWORD cl;
1241:ff.c          **** 
1242:ff.c          **** 	cl = LD_WORD(dir + DIR_FstClusLO);
 200              		.loc 1 1242 0
 201 0000 CA7E     		ldrb	r2, [r1, #27]	@ zero_extendqisi2
 202 0002 8B7E     		ldrb	r3, [r1, #26]	@ zero_extendqisi2
 203 0004 43EA0223 		orr	r3, r3, r2, lsl #8
 204              	.LVL25:
1243:ff.c          **** 	if (fs->fs_type == FS_FAT32)
 205              		.loc 1 1243 0
 206 0008 0278     		ldrb	r2, [r0]	@ zero_extendqisi2
 207 000a 032A     		cmp	r2, #3
 208 000c 05D1     		bne	.L17
1244:ff.c          **** 		cl |= (DWORD)LD_WORD(dir + DIR_FstClusHI) << 16;
 209              		.loc 1 1244 0
 210 000e 487D     		ldrb	r0, [r1, #21]	@ zero_extendqisi2
 211              	.LVL26:
 212 0010 0A7D     		ldrb	r2, [r1, #20]	@ zero_extendqisi2
 213 0012 42EA0022 		orr	r2, r2, r0, lsl #8
 214 0016 43EA0243 		orr	r3, r3, r2, lsl #16
 215              	.LVL27:
 216              	.L17:
1245:ff.c          **** 
1246:ff.c          **** 	return cl;
1247:ff.c          **** }
 217              		.loc 1 1247 0
 218 001a 1846     		mov	r0, r3
 219 001c 7047     		bx	lr
 220              		.cfi_endproc
 221              	.LFE15:
 222              		.size	ld_clust, .-ld_clust
 223 001e 00BF     		.section	.text.st_clust,"ax",%progbits
 224              		.align	2
 225              		.thumb
 226              		.thumb_func
 227              		.type	st_clust, %function
 228              	st_clust:
 229              	.LFB16:
1248:ff.c          **** 
1249:ff.c          **** 
ARM GAS  C:\Users\linar\AppData\Local\Temp\ccAaFYxm.s 			page 27


1250:ff.c          **** #if !_FS_READONLY
1251:ff.c          **** static
1252:ff.c          **** void st_clust (
1253:ff.c          **** 	BYTE* dir,	/* Pointer to the SFN entry */
1254:ff.c          **** 	DWORD cl	/* Value to be set */
1255:ff.c          **** )
1256:ff.c          **** {
 230              		.loc 1 1256 0
 231              		.cfi_startproc
 232              		@ args = 0, pretend = 0, frame = 0
 233              		@ frame_needed = 0, uses_anonymous_args = 0
 234              		@ link register save eliminated.
 235              	.LVL28:
1257:ff.c          **** 	ST_WORD(dir + DIR_FstClusLO, cl);
 236              		.loc 1 1257 0
 237 0000 8176     		strb	r1, [r0, #26]
 238 0002 C1F30723 		ubfx	r3, r1, #8, #8
 239 0006 C376     		strb	r3, [r0, #27]
1258:ff.c          **** 	ST_WORD(dir + DIR_FstClusHI, cl >> 16);
 240              		.loc 1 1258 0
 241 0008 090C     		lsrs	r1, r1, #16
 242              	.LVL29:
 243 000a 0175     		strb	r1, [r0, #20]
 244 000c 090A     		lsrs	r1, r1, #8
 245 000e 4175     		strb	r1, [r0, #21]
 246 0010 7047     		bx	lr
 247              		.cfi_endproc
 248              	.LFE16:
 249              		.size	st_clust, .-st_clust
 250 0012 00BF     		.section	.text.get_fileinfo,"ax",%progbits
 251              		.align	2
 252              		.thumb
 253              		.thumb_func
 254              		.type	get_fileinfo, %function
 255              	get_fileinfo:
 256              	.LFB21:
1259:ff.c          **** }
1260:ff.c          **** #endif
1261:ff.c          **** 
1262:ff.c          **** 
1263:ff.c          **** 
1264:ff.c          **** 
1265:ff.c          **** /*-----------------------------------------------------------------------*/
1266:ff.c          **** /* LFN handling - Test/Pick/Fit an LFN segment from/to directory entry   */
1267:ff.c          **** /*-----------------------------------------------------------------------*/
1268:ff.c          **** #if _USE_LFN
1269:ff.c          **** static
1270:ff.c          **** const BYTE LfnOfs[] = {1,3,5,7,9,14,16,18,20,22,24,28,30};	/* Offset of LFN characters in the direc
1271:ff.c          **** 
1272:ff.c          **** 
1273:ff.c          **** static
1274:ff.c          **** int cmp_lfn (			/* 1:matched, 0:not matched */
1275:ff.c          **** 	WCHAR* lfnbuf,		/* Pointer to the LFN working buffer to be compared */
1276:ff.c          **** 	BYTE* dir			/* Pointer to the directory entry containing the part of LFN */
1277:ff.c          **** )
1278:ff.c          **** {
1279:ff.c          **** 	UINT i, s;
ARM GAS  C:\Users\linar\AppData\Local\Temp\ccAaFYxm.s 			page 28


1280:ff.c          **** 	WCHAR wc, uc;
1281:ff.c          **** 
1282:ff.c          **** 
1283:ff.c          **** 	if (LD_WORD(dir + LDIR_FstClusLO) != 0) return 0;	/* Check LDIR_FstClusLO */
1284:ff.c          **** 
1285:ff.c          **** 	i = ((dir[LDIR_Ord] & 0x3F) - 1) * 13;	/* Offset in the LFN buffer */
1286:ff.c          **** 
1287:ff.c          **** 	for (wc = 1, s = 0; s < 13; s++) {		/* Process all characters in the entry */
1288:ff.c          **** 		uc = LD_WORD(dir + LfnOfs[s]);		/* Pick an LFN character */
1289:ff.c          **** 		if (wc) {
1290:ff.c          **** 			if (i >= _MAX_LFN || ff_wtoupper(uc) != ff_wtoupper(lfnbuf[i++]))	/* Compare it */
1291:ff.c          **** 				return 0;					/* Not matched */
1292:ff.c          **** 			wc = uc;
1293:ff.c          **** 		} else {
1294:ff.c          **** 			if (uc != 0xFFFF) return 0;		/* Check filler */
1295:ff.c          **** 		}
1296:ff.c          **** 	}
1297:ff.c          **** 
1298:ff.c          **** 	if ((dir[LDIR_Ord] & LLEF) && wc && lfnbuf[i])	/* Last segment matched but different length */
1299:ff.c          **** 		return 0;
1300:ff.c          **** 
1301:ff.c          **** 	return 1;		/* The part of LFN matched */
1302:ff.c          **** }
1303:ff.c          **** 
1304:ff.c          **** 
1305:ff.c          **** 
1306:ff.c          **** static
1307:ff.c          **** int pick_lfn (			/* 1:succeeded, 0:buffer overflow or invalid LFN entry */
1308:ff.c          **** 	WCHAR* lfnbuf,		/* Pointer to the LFN working buffer */
1309:ff.c          **** 	BYTE* dir			/* Pointer to the LFN entry */
1310:ff.c          **** )
1311:ff.c          **** {
1312:ff.c          **** 	UINT i, s;
1313:ff.c          **** 	WCHAR wc, uc;
1314:ff.c          **** 
1315:ff.c          **** 
1316:ff.c          **** 	if (LD_WORD(dir + LDIR_FstClusLO) != 0) return 0;	/* Check LDIR_FstClusLO */
1317:ff.c          **** 
1318:ff.c          **** 	i = ((dir[LDIR_Ord] & 0x3F) - 1) * 13;	/* Offset in the LFN buffer */
1319:ff.c          **** 
1320:ff.c          **** 	for (wc = 1, s = 0; s < 13; s++) {		/* Process all characters in the entry */
1321:ff.c          **** 		uc = LD_WORD(dir + LfnOfs[s]);		/* Pick an LFN character */
1322:ff.c          **** 		if (wc) {
1323:ff.c          **** 			if (i >= _MAX_LFN) return 0;	/* Buffer overflow? */
1324:ff.c          **** 			lfnbuf[i++] = wc = uc;			/* Store it */
1325:ff.c          **** 		} else {
1326:ff.c          **** 			if (uc != 0xFFFF) return 0;		/* Check filler */
1327:ff.c          **** 		}
1328:ff.c          **** 	}
1329:ff.c          **** 
1330:ff.c          **** 	if (dir[LDIR_Ord] & LLEF) {				/* Put terminator if it is the last LFN part */
1331:ff.c          **** 		if (i >= _MAX_LFN) return 0;		/* Buffer overflow? */
1332:ff.c          **** 		lfnbuf[i] = 0;
1333:ff.c          **** 	}
1334:ff.c          **** 
1335:ff.c          **** 	return 1;		/* The part of LFN is valid */
1336:ff.c          **** }
ARM GAS  C:\Users\linar\AppData\Local\Temp\ccAaFYxm.s 			page 29


1337:ff.c          **** 
1338:ff.c          **** 
1339:ff.c          **** #if !_FS_READONLY
1340:ff.c          **** static
1341:ff.c          **** void fit_lfn (
1342:ff.c          **** 	const WCHAR* lfnbuf,	/* Pointer to the LFN working buffer */
1343:ff.c          **** 	BYTE* dir,				/* Pointer to the LFN entry to be processed */
1344:ff.c          **** 	BYTE ord,				/* LFN order (1-20) */
1345:ff.c          **** 	BYTE sum				/* Checksum of the corresponding SFN */
1346:ff.c          **** )
1347:ff.c          **** {
1348:ff.c          **** 	UINT i, s;
1349:ff.c          **** 	WCHAR wc;
1350:ff.c          **** 
1351:ff.c          **** 
1352:ff.c          **** 	dir[LDIR_Chksum] = sum;			/* Set checksum */
1353:ff.c          **** 	dir[LDIR_Attr] = AM_LFN;		/* Set attribute. LFN entry */
1354:ff.c          **** 	dir[LDIR_Type] = 0;
1355:ff.c          **** 	ST_WORD(dir + LDIR_FstClusLO, 0);
1356:ff.c          **** 
1357:ff.c          **** 	i = (ord - 1) * 13;				/* Get offset in the LFN working buffer */
1358:ff.c          **** 	s = wc = 0;
1359:ff.c          **** 	do {
1360:ff.c          **** 		if (wc != 0xFFFF) wc = lfnbuf[i++];	/* Get an effective character */
1361:ff.c          **** 		ST_WORD(dir+LfnOfs[s], wc);	/* Put it */
1362:ff.c          **** 		if (!wc) wc = 0xFFFF;		/* Padding characters following last character */
1363:ff.c          **** 	} while (++s < 13);
1364:ff.c          **** 	if (wc == 0xFFFF || !lfnbuf[i]) ord |= LLEF;	/* Bottom LFN part is the start of LFN sequence */
1365:ff.c          **** 	dir[LDIR_Ord] = ord;			/* Set the LFN order */
1366:ff.c          **** }
1367:ff.c          **** 
1368:ff.c          **** #endif
1369:ff.c          **** #endif
1370:ff.c          **** 
1371:ff.c          **** 
1372:ff.c          **** 
1373:ff.c          **** 
1374:ff.c          **** /*-----------------------------------------------------------------------*/
1375:ff.c          **** /* Create numbered name                                                  */
1376:ff.c          **** /*-----------------------------------------------------------------------*/
1377:ff.c          **** #if _USE_LFN
1378:ff.c          **** static
1379:ff.c          **** void gen_numname (
1380:ff.c          **** 	BYTE* dst,			/* Pointer to the buffer to store numbered SFN */
1381:ff.c          **** 	const BYTE* src,	/* Pointer to SFN */
1382:ff.c          **** 	const WCHAR* lfn,	/* Pointer to LFN */
1383:ff.c          **** 	UINT seq			/* Sequence number */
1384:ff.c          **** )
1385:ff.c          **** {
1386:ff.c          **** 	BYTE ns[8], c;
1387:ff.c          **** 	UINT i, j;
1388:ff.c          **** 	WCHAR wc;
1389:ff.c          **** 	DWORD sr;
1390:ff.c          **** 
1391:ff.c          **** 
1392:ff.c          **** 	mem_cpy(dst, src, 11);
1393:ff.c          **** 
ARM GAS  C:\Users\linar\AppData\Local\Temp\ccAaFYxm.s 			page 30


1394:ff.c          **** 	if (seq > 5) {	/* On many collisions, generate a hash number instead of sequential number */
1395:ff.c          **** 		sr = seq;
1396:ff.c          **** 		while (*lfn) {	/* Create a CRC */
1397:ff.c          **** 			wc = *lfn++;
1398:ff.c          **** 			for (i = 0; i < 16; i++) {
1399:ff.c          **** 				sr = (sr << 1) + (wc & 1);
1400:ff.c          **** 				wc >>= 1;
1401:ff.c          **** 				if (sr & 0x10000) sr ^= 0x11021;
1402:ff.c          **** 			}
1403:ff.c          **** 		}
1404:ff.c          **** 		seq = (UINT)sr;
1405:ff.c          **** 	}
1406:ff.c          **** 
1407:ff.c          **** 	/* itoa (hexdecimal) */
1408:ff.c          **** 	i = 7;
1409:ff.c          **** 	do {
1410:ff.c          **** 		c = (seq % 16) + '0';
1411:ff.c          **** 		if (c > '9') c += 7;
1412:ff.c          **** 		ns[i--] = c;
1413:ff.c          **** 		seq /= 16;
1414:ff.c          **** 	} while (seq);
1415:ff.c          **** 	ns[i] = '~';
1416:ff.c          **** 
1417:ff.c          **** 	/* Append the number */
1418:ff.c          **** 	for (j = 0; j < i && dst[j] != ' '; j++) {
1419:ff.c          **** 		if (IsDBCS1(dst[j])) {
1420:ff.c          **** 			if (j == i - 1) break;
1421:ff.c          **** 			j++;
1422:ff.c          **** 		}
1423:ff.c          **** 	}
1424:ff.c          **** 	do {
1425:ff.c          **** 		dst[j++] = (i < 8) ? ns[i++] : ' ';
1426:ff.c          **** 	} while (j < 8);
1427:ff.c          **** }
1428:ff.c          **** #endif
1429:ff.c          **** 
1430:ff.c          **** 
1431:ff.c          **** 
1432:ff.c          **** 
1433:ff.c          **** /*-----------------------------------------------------------------------*/
1434:ff.c          **** /* Calculate checksum of an SFN entry                                    */
1435:ff.c          **** /*-----------------------------------------------------------------------*/
1436:ff.c          **** #if _USE_LFN
1437:ff.c          **** static
1438:ff.c          **** BYTE sum_sfn (
1439:ff.c          **** 	const BYTE* dir		/* Pointer to the SFN entry */
1440:ff.c          **** )
1441:ff.c          **** {
1442:ff.c          **** 	BYTE sum = 0;
1443:ff.c          **** 	UINT n = 11;
1444:ff.c          **** 
1445:ff.c          **** 	do sum = (sum >> 1) + (sum << 7) + *dir++; while (--n);
1446:ff.c          **** 	return sum;
1447:ff.c          **** }
1448:ff.c          **** #endif
1449:ff.c          **** 
1450:ff.c          **** 
ARM GAS  C:\Users\linar\AppData\Local\Temp\ccAaFYxm.s 			page 31


1451:ff.c          **** 
1452:ff.c          **** 
1453:ff.c          **** /*-----------------------------------------------------------------------*/
1454:ff.c          **** /* Directory handling - Find an object in the directory                  */
1455:ff.c          **** /*-----------------------------------------------------------------------*/
1456:ff.c          **** 
1457:ff.c          **** static
1458:ff.c          **** FRESULT dir_find (	/* FR_OK(0):succeeded, !=0:error */
1459:ff.c          **** 	DIR* dp			/* Pointer to the directory object linked to the file name */
1460:ff.c          **** )
1461:ff.c          **** {
1462:ff.c          **** 	FRESULT res;
1463:ff.c          **** 	BYTE c, *dir;
1464:ff.c          **** #if _USE_LFN
1465:ff.c          **** 	BYTE a, ord, sum;
1466:ff.c          **** #endif
1467:ff.c          **** 
1468:ff.c          **** 	res = dir_sdi(dp, 0);			/* Rewind directory object */
1469:ff.c          **** 	if (res != FR_OK) return res;
1470:ff.c          **** 
1471:ff.c          **** #if _USE_LFN
1472:ff.c          **** 	ord = sum = 0xFF; dp->lfn_idx = 0xFFFF;	/* Reset LFN sequence */
1473:ff.c          **** #endif
1474:ff.c          **** 	do {
1475:ff.c          **** 		res = move_window(dp->fs, dp->sect);
1476:ff.c          **** 		if (res != FR_OK) break;
1477:ff.c          **** 		dir = dp->dir;					/* Ptr to the directory entry of current index */
1478:ff.c          **** 		c = dir[DIR_Name];
1479:ff.c          **** 		if (c == 0) { res = FR_NO_FILE; break; }	/* Reached to end of table */
1480:ff.c          **** #if _USE_LFN	/* LFN configuration */
1481:ff.c          **** 		a = dir[DIR_Attr] & AM_MASK;
1482:ff.c          **** 		if (c == DDEM || ((a & AM_VOL) && a != AM_LFN)) {	/* An entry without valid data */
1483:ff.c          **** 			ord = 0xFF; dp->lfn_idx = 0xFFFF;	/* Reset LFN sequence */
1484:ff.c          **** 		} else {
1485:ff.c          **** 			if (a == AM_LFN) {			/* An LFN entry is found */
1486:ff.c          **** 				if (dp->lfn) {
1487:ff.c          **** 					if (c & LLEF) {		/* Is it start of LFN sequence? */
1488:ff.c          **** 						sum = dir[LDIR_Chksum];
1489:ff.c          **** 						c &= ~LLEF; ord = c;	/* LFN start order */
1490:ff.c          **** 						dp->lfn_idx = dp->index;	/* Start index of LFN */
1491:ff.c          **** 					}
1492:ff.c          **** 					/* Check validity of the LFN entry and compare it with given name */
1493:ff.c          **** 					ord = (c == ord && sum == dir[LDIR_Chksum] && cmp_lfn(dp->lfn, dir)) ? ord - 1 : 0xFF;
1494:ff.c          **** 				}
1495:ff.c          **** 			} else {					/* An SFN entry is found */
1496:ff.c          **** 				if (!ord && sum == sum_sfn(dir)) break;	/* LFN matched? */
1497:ff.c          **** 				if (!(dp->fn[NSFLAG] & NS_LOSS) && !mem_cmp(dir, dp->fn, 11)) break;	/* SFN matched? */
1498:ff.c          **** 				ord = 0xFF; dp->lfn_idx = 0xFFFF;	/* Reset LFN sequence */
1499:ff.c          **** 			}
1500:ff.c          **** 		}
1501:ff.c          **** #else		/* Non LFN configuration */
1502:ff.c          **** 		if (!(dir[DIR_Attr] & AM_VOL) && !mem_cmp(dir, dp->fn, 11)) /* Is it a valid entry? */
1503:ff.c          **** 			break;
1504:ff.c          **** #endif
1505:ff.c          **** 		res = dir_next(dp, 0);		/* Next entry */
1506:ff.c          **** 	} while (res == FR_OK);
1507:ff.c          **** 
ARM GAS  C:\Users\linar\AppData\Local\Temp\ccAaFYxm.s 			page 32


1508:ff.c          **** 	return res;
1509:ff.c          **** }
1510:ff.c          **** 
1511:ff.c          **** 
1512:ff.c          **** 
1513:ff.c          **** 
1514:ff.c          **** /*-----------------------------------------------------------------------*/
1515:ff.c          **** /* Read an object from the directory                                     */
1516:ff.c          **** /*-----------------------------------------------------------------------*/
1517:ff.c          **** #if _FS_MINIMIZE <= 1 || _USE_LABEL || _FS_RPATH >= 2
1518:ff.c          **** static
1519:ff.c          **** FRESULT dir_read (
1520:ff.c          **** 	DIR* dp,		/* Pointer to the directory object */
1521:ff.c          **** 	int vol			/* Filtered by 0:file/directory or 1:volume label */
1522:ff.c          **** )
1523:ff.c          **** {
1524:ff.c          **** 	FRESULT res;
1525:ff.c          **** 	BYTE a, c, *dir;
1526:ff.c          **** #if _USE_LFN
1527:ff.c          **** 	BYTE ord = 0xFF, sum = 0xFF;
1528:ff.c          **** #endif
1529:ff.c          **** 
1530:ff.c          **** 	res = FR_NO_FILE;
1531:ff.c          **** 	while (dp->sect) {
1532:ff.c          **** 		res = move_window(dp->fs, dp->sect);
1533:ff.c          **** 		if (res != FR_OK) break;
1534:ff.c          **** 		dir = dp->dir;					/* Ptr to the directory entry of current index */
1535:ff.c          **** 		c = dir[DIR_Name];
1536:ff.c          **** 		if (c == 0) { res = FR_NO_FILE; break; }	/* Reached to end of table */
1537:ff.c          **** 		a = dir[DIR_Attr] & AM_MASK;
1538:ff.c          **** #if _USE_LFN	/* LFN configuration */
1539:ff.c          **** 		if (c == DDEM || (!_FS_RPATH && c == '.') || (int)((a & ~AM_ARC) == AM_VOL) != vol) {	/* An entry
1540:ff.c          **** 			ord = 0xFF;
1541:ff.c          **** 		} else {
1542:ff.c          **** 			if (a == AM_LFN) {			/* An LFN entry is found */
1543:ff.c          **** 				if (c & LLEF) {			/* Is it start of LFN sequence? */
1544:ff.c          **** 					sum = dir[LDIR_Chksum];
1545:ff.c          **** 					c &= ~LLEF; ord = c;
1546:ff.c          **** 					dp->lfn_idx = dp->index;
1547:ff.c          **** 				}
1548:ff.c          **** 				/* Check LFN validity and capture it */
1549:ff.c          **** 				ord = (c == ord && sum == dir[LDIR_Chksum] && pick_lfn(dp->lfn, dir)) ? ord - 1 : 0xFF;
1550:ff.c          **** 			} else {					/* An SFN entry is found */
1551:ff.c          **** 				if (ord || sum != sum_sfn(dir))	/* Is there a valid LFN? */
1552:ff.c          **** 					dp->lfn_idx = 0xFFFF;		/* It has no LFN. */
1553:ff.c          **** 				break;
1554:ff.c          **** 			}
1555:ff.c          **** 		}
1556:ff.c          **** #else		/* Non LFN configuration */
1557:ff.c          **** 		if (c != DDEM && (_FS_RPATH || c != '.') && a != AM_LFN && (int)((a & ~AM_ARC) == AM_VOL) == vol)
1558:ff.c          **** 			break;
1559:ff.c          **** #endif
1560:ff.c          **** 		res = dir_next(dp, 0);				/* Next entry */
1561:ff.c          **** 		if (res != FR_OK) break;
1562:ff.c          **** 	}
1563:ff.c          **** 
1564:ff.c          **** 	if (res != FR_OK) dp->sect = 0;
ARM GAS  C:\Users\linar\AppData\Local\Temp\ccAaFYxm.s 			page 33


1565:ff.c          **** 
1566:ff.c          **** 	return res;
1567:ff.c          **** }
1568:ff.c          **** #endif	/* _FS_MINIMIZE <= 1 || _USE_LABEL || _FS_RPATH >= 2 */
1569:ff.c          **** 
1570:ff.c          **** 
1571:ff.c          **** 
1572:ff.c          **** 
1573:ff.c          **** /*-----------------------------------------------------------------------*/
1574:ff.c          **** /* Register an object to the directory                                   */
1575:ff.c          **** /*-----------------------------------------------------------------------*/
1576:ff.c          **** #if !_FS_READONLY
1577:ff.c          **** static
1578:ff.c          **** FRESULT dir_register (	/* FR_OK:succeeded, FR_DENIED:no free entry or too many SFN collision, FR_DI
1579:ff.c          **** 	DIR* dp				/* Target directory with object name to be created */
1580:ff.c          **** )
1581:ff.c          **** {
1582:ff.c          **** 	FRESULT res;
1583:ff.c          **** #if _USE_LFN	/* LFN configuration */
1584:ff.c          **** 	UINT n, nent;
1585:ff.c          **** 	BYTE sn[12], *fn, sum;
1586:ff.c          **** 	WCHAR *lfn;
1587:ff.c          **** 
1588:ff.c          **** 
1589:ff.c          **** 	fn = dp->fn; lfn = dp->lfn;
1590:ff.c          **** 	mem_cpy(sn, fn, 12);
1591:ff.c          **** 
1592:ff.c          **** 	if (_FS_RPATH && (sn[NSFLAG] & NS_DOT))		/* Cannot create dot entry */
1593:ff.c          **** 		return FR_INVALID_NAME;
1594:ff.c          **** 
1595:ff.c          **** 	if (sn[NSFLAG] & NS_LOSS) {			/* When LFN is out of 8.3 format, generate a numbered name */
1596:ff.c          **** 		fn[NSFLAG] = 0; dp->lfn = 0;			/* Find only SFN */
1597:ff.c          **** 		for (n = 1; n < 100; n++) {
1598:ff.c          **** 			gen_numname(fn, sn, lfn, n);	/* Generate a numbered name */
1599:ff.c          **** 			res = dir_find(dp);				/* Check if the name collides with existing SFN */
1600:ff.c          **** 			if (res != FR_OK) break;
1601:ff.c          **** 		}
1602:ff.c          **** 		if (n == 100) return FR_DENIED;		/* Abort if too many collisions */
1603:ff.c          **** 		if (res != FR_NO_FILE) return res;	/* Abort if the result is other than 'not collided' */
1604:ff.c          **** 		fn[NSFLAG] = sn[NSFLAG]; dp->lfn = lfn;
1605:ff.c          **** 	}
1606:ff.c          **** 
1607:ff.c          **** 	if (sn[NSFLAG] & NS_LFN) {			/* When LFN is to be created, allocate entries for an SFN + LFNs. */
1608:ff.c          **** 		for (n = 0; lfn[n]; n++) ;
1609:ff.c          **** 		nent = (n + 25) / 13;
1610:ff.c          **** 	} else {						/* Otherwise allocate an entry for an SFN  */
1611:ff.c          **** 		nent = 1;
1612:ff.c          **** 	}
1613:ff.c          **** 	res = dir_alloc(dp, nent);		/* Allocate entries */
1614:ff.c          **** 
1615:ff.c          **** 	if (res == FR_OK && --nent) {	/* Set LFN entry if needed */
1616:ff.c          **** 		res = dir_sdi(dp, dp->index - nent);
1617:ff.c          **** 		if (res == FR_OK) {
1618:ff.c          **** 			sum = sum_sfn(dp->fn);	/* Checksum value of the SFN tied to the LFN */
1619:ff.c          **** 			do {					/* Store LFN entries in bottom first */
1620:ff.c          **** 				res = move_window(dp->fs, dp->sect);
1621:ff.c          **** 				if (res != FR_OK) break;
ARM GAS  C:\Users\linar\AppData\Local\Temp\ccAaFYxm.s 			page 34


1622:ff.c          **** 				fit_lfn(dp->lfn, dp->dir, (BYTE)nent, sum);
1623:ff.c          **** 				dp->fs->wflag = 1;
1624:ff.c          **** 				res = dir_next(dp, 0);	/* Next entry */
1625:ff.c          **** 			} while (res == FR_OK && --nent);
1626:ff.c          **** 		}
1627:ff.c          **** 	}
1628:ff.c          **** #else	/* Non LFN configuration */
1629:ff.c          **** 	res = dir_alloc(dp, 1);		/* Allocate an entry for SFN */
1630:ff.c          **** #endif
1631:ff.c          **** 
1632:ff.c          **** 	if (res == FR_OK) {				/* Set SFN entry */
1633:ff.c          **** 		res = move_window(dp->fs, dp->sect);
1634:ff.c          **** 		if (res == FR_OK) {
1635:ff.c          **** 			mem_set(dp->dir, 0, SZ_DIRE);	/* Clean the entry */
1636:ff.c          **** 			mem_cpy(dp->dir, dp->fn, 11);	/* Put SFN */
1637:ff.c          **** #if _USE_LFN
1638:ff.c          **** 			dp->dir[DIR_NTres] = dp->fn[NSFLAG] & (NS_BODY | NS_EXT);	/* Put NT flag */
1639:ff.c          **** #endif
1640:ff.c          **** 			dp->fs->wflag = 1;
1641:ff.c          **** 		}
1642:ff.c          **** 	}
1643:ff.c          **** 
1644:ff.c          **** 	return res;
1645:ff.c          **** }
1646:ff.c          **** #endif /* !_FS_READONLY */
1647:ff.c          **** 
1648:ff.c          **** 
1649:ff.c          **** 
1650:ff.c          **** 
1651:ff.c          **** /*-----------------------------------------------------------------------*/
1652:ff.c          **** /* Remove an object from the directory                                   */
1653:ff.c          **** /*-----------------------------------------------------------------------*/
1654:ff.c          **** #if !_FS_READONLY && !_FS_MINIMIZE
1655:ff.c          **** static
1656:ff.c          **** FRESULT dir_remove (	/* FR_OK:Succeeded, FR_DISK_ERR:A disk error */
1657:ff.c          **** 	DIR* dp				/* Directory object pointing the entry to be removed */
1658:ff.c          **** )
1659:ff.c          **** {
1660:ff.c          **** 	FRESULT res;
1661:ff.c          **** #if _USE_LFN	/* LFN configuration */
1662:ff.c          **** 	UINT i;
1663:ff.c          **** 
1664:ff.c          **** 	i = dp->index;	/* SFN index */
1665:ff.c          **** 	res = dir_sdi(dp, (dp->lfn_idx == 0xFFFF) ? i : dp->lfn_idx);	/* Goto the SFN or top of the LFN en
1666:ff.c          **** 	if (res == FR_OK) {
1667:ff.c          **** 		do {
1668:ff.c          **** 			res = move_window(dp->fs, dp->sect);
1669:ff.c          **** 			if (res != FR_OK) break;
1670:ff.c          **** 			mem_set(dp->dir, 0, SZ_DIRE);	/* Clear and mark the entry "deleted" */
1671:ff.c          **** 			*dp->dir = DDEM;
1672:ff.c          **** 			dp->fs->wflag = 1;
1673:ff.c          **** 			if (dp->index >= i) break;	/* When reached SFN, all entries of the object has been deleted. */
1674:ff.c          **** 			res = dir_next(dp, 0);		/* Next entry */
1675:ff.c          **** 		} while (res == FR_OK);
1676:ff.c          **** 		if (res == FR_NO_FILE) res = FR_INT_ERR;
1677:ff.c          **** 	}
1678:ff.c          **** 
ARM GAS  C:\Users\linar\AppData\Local\Temp\ccAaFYxm.s 			page 35


1679:ff.c          **** #else			/* Non LFN configuration */
1680:ff.c          **** 	res = dir_sdi(dp, dp->index);
1681:ff.c          **** 	if (res == FR_OK) {
1682:ff.c          **** 		res = move_window(dp->fs, dp->sect);
1683:ff.c          **** 		if (res == FR_OK) {
1684:ff.c          **** 			mem_set(dp->dir, 0, SZ_DIRE);	/* Clear and mark the entry "deleted" */
1685:ff.c          **** 			*dp->dir = DDEM;
1686:ff.c          **** 			dp->fs->wflag = 1;
1687:ff.c          **** 		}
1688:ff.c          **** 	}
1689:ff.c          **** #endif
1690:ff.c          **** 
1691:ff.c          **** 	return res;
1692:ff.c          **** }
1693:ff.c          **** #endif /* !_FS_READONLY */
1694:ff.c          **** 
1695:ff.c          **** 
1696:ff.c          **** 
1697:ff.c          **** 
1698:ff.c          **** /*-----------------------------------------------------------------------*/
1699:ff.c          **** /* Get file information from directory entry                             */
1700:ff.c          **** /*-----------------------------------------------------------------------*/
1701:ff.c          **** #if _FS_MINIMIZE <= 1 || _FS_RPATH >= 2
1702:ff.c          **** static
1703:ff.c          **** void get_fileinfo (		/* No return code */
1704:ff.c          **** 	DIR* dp,			/* Pointer to the directory object */
1705:ff.c          **** 	FILINFO* fno	 	/* Pointer to the file information to be filled */
1706:ff.c          **** )
1707:ff.c          **** {
 257              		.loc 1 1707 0
 258              		.cfi_startproc
 259              		@ args = 0, pretend = 0, frame = 0
 260              		@ frame_needed = 0, uses_anonymous_args = 0
 261              		@ link register save eliminated.
 262              	.LVL30:
 263 0000 30B4     		push	{r4, r5}
 264              		.cfi_def_cfa_offset 8
 265              		.cfi_offset 4, -8
 266              		.cfi_offset 5, -4
1708:ff.c          **** 	UINT i;
1709:ff.c          **** 	TCHAR *p, c;
1710:ff.c          **** 	BYTE *dir;
1711:ff.c          **** #if _USE_LFN
1712:ff.c          **** 	WCHAR w, *lfn;
1713:ff.c          **** #endif
1714:ff.c          **** 
1715:ff.c          **** 	p = fno->fname;
 267              		.loc 1 1715 0
 268 0002 01F10904 		add	r4, r1, #9
 269              	.LVL31:
1716:ff.c          **** 	if (dp->sect) {		/* Get SFN */
 270              		.loc 1 1716 0
 271 0006 0369     		ldr	r3, [r0, #16]
 272 0008 53B3     		cbz	r3, .L20
1717:ff.c          **** 		dir = dp->dir;
 273              		.loc 1 1717 0
 274 000a 4069     		ldr	r0, [r0, #20]
ARM GAS  C:\Users\linar\AppData\Local\Temp\ccAaFYxm.s 			page 36


 275              	.LVL32:
1718:ff.c          **** 		i = 0;
 276              		.loc 1 1718 0
 277 000c 0023     		movs	r3, #0
1719:ff.c          **** 		while (i < 11) {		/* Copy name body and extension */
 278              		.loc 1 1719 0
 279 000e 0EE0     		b	.L21
 280              	.LVL33:
 281              	.L25:
1720:ff.c          **** 			c = (TCHAR)dir[i++];
 282              		.loc 1 1720 0
 283 0010 5A1C     		adds	r2, r3, #1
 284              	.LVL34:
 285 0012 C35C     		ldrb	r3, [r0, r3]	@ zero_extendqisi2
 286              	.LVL35:
1721:ff.c          **** 			if (c == ' ') continue;				/* Skip padding spaces */
 287              		.loc 1 1721 0
 288 0014 202B     		cmp	r3, #32
 289 0016 09D0     		beq	.L22
1722:ff.c          **** 			if (c == RDDEM) c = (TCHAR)DDEM;	/* Restore replaced DDEM character */
 290              		.loc 1 1722 0
 291 0018 052B     		cmp	r3, #5
 292 001a 00D1     		bne	.L23
 293 001c E523     		movs	r3, #229
 294              	.LVL36:
 295              	.L23:
1723:ff.c          **** 			if (i == 9) *p++ = '.';				/* Insert a . if extension is exist */
 296              		.loc 1 1723 0
 297 001e 092A     		cmp	r2, #9
 298 0020 02D1     		bne	.L24
 299              	.LVL37:
 300              		.loc 1 1723 0 is_stmt 0 discriminator 1
 301 0022 2E25     		movs	r5, #46
 302 0024 2570     		strb	r5, [r4]
 303 0026 0134     		adds	r4, r4, #1
 304              	.LVL38:
 305              	.L24:
1724:ff.c          **** #if _USE_LFN
1725:ff.c          **** 			if (IsUpper(c) && (dir[DIR_NTres] & (i >= 9 ? NS_EXT : NS_BODY)))
1726:ff.c          **** 				c += 0x20;			/* To lower */
1727:ff.c          **** #if _LFN_UNICODE
1728:ff.c          **** 			if (IsDBCS1(c) && i != 8 && i != 11 && IsDBCS2(dir[i]))
1729:ff.c          **** 				c = c << 8 | dir[i++];
1730:ff.c          **** 			c = ff_convert(c, 1);	/* OEM -> Unicode */
1731:ff.c          **** 			if (!c) c = '?';
1732:ff.c          **** #endif
1733:ff.c          **** #endif
1734:ff.c          **** 			*p++ = c;
 306              		.loc 1 1734 0 is_stmt 1
 307 0028 2370     		strb	r3, [r4]
 308 002a 0134     		adds	r4, r4, #1
 309              	.LVL39:
 310              	.L22:
 311 002c 1346     		mov	r3, r2
 312              	.LVL40:
 313              	.L21:
1719:ff.c          **** 			c = (TCHAR)dir[i++];
ARM GAS  C:\Users\linar\AppData\Local\Temp\ccAaFYxm.s 			page 37


 314              		.loc 1 1719 0
 315 002e 0A2B     		cmp	r3, #10
 316 0030 EED9     		bls	.L25
1735:ff.c          **** 		}
1736:ff.c          **** 		fno->fattrib = dir[DIR_Attr];				/* Attribute */
 317              		.loc 1 1736 0
 318 0032 C37A     		ldrb	r3, [r0, #11]	@ zero_extendqisi2
 319              	.LVL41:
 320 0034 0B72     		strb	r3, [r1, #8]
1737:ff.c          **** 		fno->fsize = LD_DWORD(dir + DIR_FileSize);	/* Size */
 321              		.loc 1 1737 0
 322 0036 C27F     		ldrb	r2, [r0, #31]	@ zero_extendqisi2
 323 0038 837F     		ldrb	r3, [r0, #30]	@ zero_extendqisi2
 324 003a 1B04     		lsls	r3, r3, #16
 325 003c 43EA0263 		orr	r3, r3, r2, lsl #24
 326 0040 427F     		ldrb	r2, [r0, #29]	@ zero_extendqisi2
 327 0042 43EA0223 		orr	r3, r3, r2, lsl #8
 328 0046 027F     		ldrb	r2, [r0, #28]	@ zero_extendqisi2
 329 0048 1343     		orrs	r3, r3, r2
 330 004a 0B60     		str	r3, [r1]
1738:ff.c          **** 		fno->fdate = LD_WORD(dir + DIR_WrtDate);	/* Date */
 331              		.loc 1 1738 0
 332 004c 427E     		ldrb	r2, [r0, #25]	@ zero_extendqisi2
 333 004e 037E     		ldrb	r3, [r0, #24]	@ zero_extendqisi2
 334 0050 43EA0223 		orr	r3, r3, r2, lsl #8
 335 0054 8B80     		strh	r3, [r1, #4]	@ movhi
1739:ff.c          **** 		fno->ftime = LD_WORD(dir + DIR_WrtTime);	/* Time */
 336              		.loc 1 1739 0
 337 0056 C27D     		ldrb	r2, [r0, #23]	@ zero_extendqisi2
 338 0058 837D     		ldrb	r3, [r0, #22]	@ zero_extendqisi2
 339 005a 43EA0223 		orr	r3, r3, r2, lsl #8
 340 005e CB80     		strh	r3, [r1, #6]	@ movhi
 341              	.LVL42:
 342              	.L20:
1740:ff.c          **** 	}
1741:ff.c          **** 	*p = 0;		/* Terminate SFN string by a \0 */
 343              		.loc 1 1741 0
 344 0060 0023     		movs	r3, #0
 345 0062 2370     		strb	r3, [r4]
1742:ff.c          **** 
1743:ff.c          **** #if _USE_LFN
1744:ff.c          **** 	if (fno->lfname) {
1745:ff.c          **** 		i = 0; p = fno->lfname;
1746:ff.c          **** 		if (dp->sect && fno->lfsize && dp->lfn_idx != 0xFFFF) {	/* Get LFN if available */
1747:ff.c          **** 			lfn = dp->lfn;
1748:ff.c          **** 			while ((w = *lfn++) != 0) {		/* Get an LFN character */
1749:ff.c          **** #if !_LFN_UNICODE
1750:ff.c          **** 				w = ff_convert(w, 0);		/* Unicode -> OEM */
1751:ff.c          **** 				if (!w) { i = 0; break; }	/* No LFN if it could not be converted */
1752:ff.c          **** 				if (_DF1S && w >= 0x100)	/* Put 1st byte if it is a DBC (always false on SBCS cfg) */
1753:ff.c          **** 					p[i++] = (TCHAR)(w >> 8);
1754:ff.c          **** #endif
1755:ff.c          **** 				if (i >= fno->lfsize - 1) { i = 0; break; }	/* No LFN if buffer overflow */
1756:ff.c          **** 				p[i++] = (TCHAR)w;
1757:ff.c          **** 			}
1758:ff.c          **** 		}
1759:ff.c          **** 		p[i] = 0;	/* Terminate LFN string by a \0 */
ARM GAS  C:\Users\linar\AppData\Local\Temp\ccAaFYxm.s 			page 38


1760:ff.c          **** 	}
1761:ff.c          **** #endif
1762:ff.c          **** }
 346              		.loc 1 1762 0
 347 0064 30BC     		pop	{r4, r5}
 348              		.cfi_restore 5
 349              		.cfi_restore 4
 350              		.cfi_def_cfa_offset 0
 351              	.LVL43:
 352 0066 7047     		bx	lr
 353              		.cfi_endproc
 354              	.LFE21:
 355              		.size	get_fileinfo, .-get_fileinfo
 356              		.section	.text.create_name,"ax",%progbits
 357              		.align	2
 358              		.thumb
 359              		.thumb_func
 360              		.type	create_name, %function
 361              	create_name:
 362              	.LFB22:
1763:ff.c          **** #endif /* _FS_MINIMIZE <= 1 || _FS_RPATH >= 2 */
1764:ff.c          **** 
1765:ff.c          **** 
1766:ff.c          **** 
1767:ff.c          **** 
1768:ff.c          **** /*-----------------------------------------------------------------------*/
1769:ff.c          **** /* Pattern matching                                                      */
1770:ff.c          **** /*-----------------------------------------------------------------------*/
1771:ff.c          **** #if _USE_FIND && _FS_MINIMIZE <= 1
1772:ff.c          **** static
1773:ff.c          **** WCHAR get_achar (		/* Get a character and advances ptr 1 or 2 */
1774:ff.c          **** 	const TCHAR** ptr	/* Pointer to pointer to the SBCS/DBCS/Unicode string */
1775:ff.c          **** )
1776:ff.c          **** {
1777:ff.c          **** 	WCHAR chr;
1778:ff.c          **** 
1779:ff.c          **** #if !_LFN_UNICODE
1780:ff.c          **** 	chr = (BYTE)*(*ptr)++;					/* Get a byte */
1781:ff.c          **** 	if (IsLower(chr)) chr -= 0x20;			/* To upper ASCII char */
1782:ff.c          **** 	if (IsDBCS1(chr) && IsDBCS2(**ptr))		/* Get DBC 2nd byte if needed */
1783:ff.c          **** 		chr = chr << 8 | (BYTE)*(*ptr)++;
1784:ff.c          **** #ifdef _EXCVT
1785:ff.c          **** 	if (chr >= 0x80) chr = ExCvt[chr - 0x80];	/* To upper SBCS extended char */
1786:ff.c          **** #endif
1787:ff.c          **** #else
1788:ff.c          **** 	chr = ff_wtoupper(*(*ptr)++);			/* Get a word and to upper */
1789:ff.c          **** #endif
1790:ff.c          **** 	return chr;
1791:ff.c          **** }
1792:ff.c          **** 
1793:ff.c          **** 
1794:ff.c          **** static
1795:ff.c          **** int pattern_matching (	/* 0:mismatched, 1:matched */
1796:ff.c          **** 	const TCHAR* pat,	/* Matching pattern */
1797:ff.c          **** 	const TCHAR* nam,	/* String to be tested */
1798:ff.c          **** 	int skip,			/* Number of pre-skip chars (number of ?s) */
1799:ff.c          **** 	int inf				/* Infinite search (* specified) */
ARM GAS  C:\Users\linar\AppData\Local\Temp\ccAaFYxm.s 			page 39


1800:ff.c          **** )
1801:ff.c          **** {
1802:ff.c          **** 	const TCHAR *pp, *np;
1803:ff.c          **** 	WCHAR pc, nc;
1804:ff.c          **** 	int nm, nx;
1805:ff.c          **** 
1806:ff.c          **** 
1807:ff.c          **** 	while (skip--) {				/* Pre-skip name chars */
1808:ff.c          **** 		if (!get_achar(&nam)) return 0;	/* Branch mismatched if less name chars */
1809:ff.c          **** 	}
1810:ff.c          **** 	if (!*pat && inf) return 1;		/* (short circuit) */
1811:ff.c          **** 
1812:ff.c          **** 	do {
1813:ff.c          **** 		pp = pat; np = nam;			/* Top of pattern and name to match */
1814:ff.c          **** 		for (;;) {
1815:ff.c          **** 			if (*pp == '?' || *pp == '*') {	/* Wildcard? */
1816:ff.c          **** 				nm = nx = 0;
1817:ff.c          **** 				do {				/* Analyze the wildcard chars */
1818:ff.c          **** 					if (*pp++ == '?') nm++; else nx = 1;
1819:ff.c          **** 				} while (*pp == '?' || *pp == '*');
1820:ff.c          **** 				if (pattern_matching(pp, np, nm, nx)) return 1;	/* Test new branch (recurs upto number of wildc
1821:ff.c          **** 				nc = *np; break;	/* Branch mismatched */
1822:ff.c          **** 			}
1823:ff.c          **** 			pc = get_achar(&pp);	/* Get a pattern char */
1824:ff.c          **** 			nc = get_achar(&np);	/* Get a name char */
1825:ff.c          **** 			if (pc != nc) break;	/* Branch mismatched? */
1826:ff.c          **** 			if (!pc) return 1;		/* Branch matched? (matched at end of both strings) */
1827:ff.c          **** 		}
1828:ff.c          **** 		get_achar(&nam);			/* nam++ */
1829:ff.c          **** 	} while (inf && nc);			/* Retry until end of name if infinite search is specified */
1830:ff.c          **** 
1831:ff.c          **** 	return 0;
1832:ff.c          **** }
1833:ff.c          **** #endif /* _USE_FIND && _FS_MINIMIZE <= 1 */
1834:ff.c          **** 
1835:ff.c          **** 
1836:ff.c          **** 
1837:ff.c          **** 
1838:ff.c          **** /*-----------------------------------------------------------------------*/
1839:ff.c          **** /* Pick a top segment and create the object name in directory form       */
1840:ff.c          **** /*-----------------------------------------------------------------------*/
1841:ff.c          **** 
1842:ff.c          **** static
1843:ff.c          **** FRESULT create_name (	/* FR_OK: successful, FR_INVALID_NAME: could not create */
1844:ff.c          **** 	DIR* dp,			/* Pointer to the directory object */
1845:ff.c          **** 	const TCHAR** path	/* Pointer to pointer to the segment in the path string */
1846:ff.c          **** )
1847:ff.c          **** {
 363              		.loc 1 1847 0
 364              		.cfi_startproc
 365              		@ args = 0, pretend = 0, frame = 0
 366              		@ frame_needed = 0, uses_anonymous_args = 0
 367              	.LVL44:
 368 0000 2DE9F84F 		push	{r3, r4, r5, r6, r7, r8, r9, r10, fp, lr}
 369              		.cfi_def_cfa_offset 40
 370              		.cfi_offset 3, -40
 371              		.cfi_offset 4, -36
ARM GAS  C:\Users\linar\AppData\Local\Temp\ccAaFYxm.s 			page 40


 372              		.cfi_offset 5, -32
 373              		.cfi_offset 6, -28
 374              		.cfi_offset 7, -24
 375              		.cfi_offset 8, -20
 376              		.cfi_offset 9, -16
 377              		.cfi_offset 10, -12
 378              		.cfi_offset 11, -8
 379              		.cfi_offset 14, -4
 380 0004 8946     		mov	r9, r1
1848:ff.c          **** #if _USE_LFN	/* LFN configuration */
1849:ff.c          **** 	BYTE b, cf;
1850:ff.c          **** 	WCHAR w, *lfn;
1851:ff.c          **** 	UINT i, ni, si, di;
1852:ff.c          **** 	const TCHAR *p;
1853:ff.c          **** 
1854:ff.c          **** 	/* Create LFN in Unicode */
1855:ff.c          **** 	for (p = *path; *p == '/' || *p == '\\'; p++) ;	/* Strip duplicated separator */
1856:ff.c          **** 	lfn = dp->lfn;
1857:ff.c          **** 	si = di = 0;
1858:ff.c          **** 	for (;;) {
1859:ff.c          **** 		w = p[si++];					/* Get a character */
1860:ff.c          **** 		if (w < ' ' || w == '/' || w == '\\') break;	/* Break on end of segment */
1861:ff.c          **** 		if (di >= _MAX_LFN)				/* Reject too long name */
1862:ff.c          **** 			return FR_INVALID_NAME;
1863:ff.c          **** #if !_LFN_UNICODE
1864:ff.c          **** 		w &= 0xFF;
1865:ff.c          **** 		if (IsDBCS1(w)) {				/* Check if it is a DBC 1st byte (always false on SBCS cfg) */
1866:ff.c          **** 			b = (BYTE)p[si++];			/* Get 2nd byte */
1867:ff.c          **** 			w = (w << 8) + b;			/* Create a DBC */
1868:ff.c          **** 			if (!IsDBCS2(b))
1869:ff.c          **** 				return FR_INVALID_NAME;	/* Reject invalid sequence */
1870:ff.c          **** 		}
1871:ff.c          **** 		w = ff_convert(w, 1);			/* Convert ANSI/OEM to Unicode */
1872:ff.c          **** 		if (!w) return FR_INVALID_NAME;	/* Reject invalid code */
1873:ff.c          **** #endif
1874:ff.c          **** 		if (w < 0x80 && chk_chr("\"*:<>\?|\x7F", w)) /* Reject illegal characters for LFN */
1875:ff.c          **** 			return FR_INVALID_NAME;
1876:ff.c          **** 		lfn[di++] = w;					/* Store the Unicode character */
1877:ff.c          **** 	}
1878:ff.c          **** 	*path = &p[si];						/* Return pointer to the next segment */
1879:ff.c          **** 	cf = (w < ' ') ? NS_LAST : 0;		/* Set last segment flag if end of path */
1880:ff.c          **** #if _FS_RPATH
1881:ff.c          **** 	if ((di == 1 && lfn[di - 1] == '.') ||
1882:ff.c          **** 		(di == 2 && lfn[di - 1] == '.' && lfn[di - 2] == '.')) {	/* Is this segment a dot entry? */
1883:ff.c          **** 		lfn[di] = 0;
1884:ff.c          **** 		for (i = 0; i < 11; i++)		/* Create dot name for SFN entry */
1885:ff.c          **** 			dp->fn[i] = (i < di) ? '.' : ' ';
1886:ff.c          **** 		dp->fn[i] = cf | NS_DOT;		/* This is a dot entry */
1887:ff.c          **** 		return FR_OK;
1888:ff.c          **** 	}
1889:ff.c          **** #endif
1890:ff.c          **** 	while (di) {						/* Snip off trailing spaces and dots if exist */
1891:ff.c          **** 		w = lfn[di - 1];
1892:ff.c          **** 		if (w != ' ' && w != '.') break;
1893:ff.c          **** 		di--;
1894:ff.c          **** 	}
1895:ff.c          **** 	if (!di) return FR_INVALID_NAME;	/* Reject nul string */
ARM GAS  C:\Users\linar\AppData\Local\Temp\ccAaFYxm.s 			page 41


1896:ff.c          **** 	lfn[di] = 0;						/* LFN is created */
1897:ff.c          **** 
1898:ff.c          **** 	/* Create SFN in directory form */
1899:ff.c          **** 	mem_set(dp->fn, ' ', 11);
1900:ff.c          **** 	for (si = 0; lfn[si] == ' ' || lfn[si] == '.'; si++) ;	/* Strip leading spaces and dots */
1901:ff.c          **** 	if (si) cf |= NS_LOSS | NS_LFN;
1902:ff.c          **** 	while (di && lfn[di - 1] != '.') di--;	/* Find extension (di<=si: no extension) */
1903:ff.c          **** 
1904:ff.c          **** 	b = i = 0; ni = 8;
1905:ff.c          **** 	for (;;) {
1906:ff.c          **** 		w = lfn[si++];					/* Get an LFN character */
1907:ff.c          **** 		if (!w) break;					/* Break on end of the LFN */
1908:ff.c          **** 		if (w == ' ' || (w == '.' && si != di)) {	/* Remove spaces and dots */
1909:ff.c          **** 			cf |= NS_LOSS | NS_LFN; continue;
1910:ff.c          **** 		}
1911:ff.c          **** 
1912:ff.c          **** 		if (i >= ni || si == di) {		/* Extension or end of SFN */
1913:ff.c          **** 			if (ni == 11) {				/* Long extension */
1914:ff.c          **** 				cf |= NS_LOSS | NS_LFN; break;
1915:ff.c          **** 			}
1916:ff.c          **** 			if (si != di) cf |= NS_LOSS | NS_LFN;	/* Out of 8.3 format */
1917:ff.c          **** 			if (si > di) break;			/* No extension */
1918:ff.c          **** 			si = di; i = 8; ni = 11;	/* Enter extension section */
1919:ff.c          **** 			b <<= 2; continue;
1920:ff.c          **** 		}
1921:ff.c          **** 
1922:ff.c          **** 		if (w >= 0x80) {				/* Non ASCII character */
1923:ff.c          **** #ifdef _EXCVT
1924:ff.c          **** 			w = ff_convert(w, 0);		/* Unicode -> OEM code */
1925:ff.c          **** 			if (w) w = ExCvt[w - 0x80];	/* Convert extended character to upper (SBCS) */
1926:ff.c          **** #else
1927:ff.c          **** 			w = ff_convert(ff_wtoupper(w), 0);	/* Upper converted Unicode -> OEM code */
1928:ff.c          **** #endif
1929:ff.c          **** 			cf |= NS_LFN;				/* Force create LFN entry */
1930:ff.c          **** 		}
1931:ff.c          **** 
1932:ff.c          **** 		if (_DF1S && w >= 0x100) {		/* Is this DBC? (always false at SBCS cfg) */
1933:ff.c          **** 			if (i >= ni - 1) {
1934:ff.c          **** 				cf |= NS_LOSS | NS_LFN; i = ni; continue;
1935:ff.c          **** 			}
1936:ff.c          **** 			dp->fn[i++] = (BYTE)(w >> 8);
1937:ff.c          **** 		} else {						/* SBC */
1938:ff.c          **** 			if (!w || chk_chr("+,;=[]", w)) {	/* Replace illegal characters for SFN */
1939:ff.c          **** 				w = '_'; cf |= NS_LOSS | NS_LFN;/* Lossy conversion */
1940:ff.c          **** 			} else {
1941:ff.c          **** 				if (IsUpper(w)) {		/* ASCII large capital */
1942:ff.c          **** 					b |= 2;
1943:ff.c          **** 				} else {
1944:ff.c          **** 					if (IsLower(w)) {	/* ASCII small capital */
1945:ff.c          **** 						b |= 1; w -= 0x20;
1946:ff.c          **** 					}
1947:ff.c          **** 				}
1948:ff.c          **** 			}
1949:ff.c          **** 		}
1950:ff.c          **** 		dp->fn[i++] = (BYTE)w;
1951:ff.c          **** 	}
1952:ff.c          **** 
ARM GAS  C:\Users\linar\AppData\Local\Temp\ccAaFYxm.s 			page 42


1953:ff.c          **** 	if (dp->fn[0] == DDEM) dp->fn[0] = RDDEM;	/* If the first character collides with DDEM, replace it
1954:ff.c          **** 
1955:ff.c          **** 	if (ni == 8) b <<= 2;
1956:ff.c          **** 	if ((b & 0x0C) == 0x0C || (b & 0x03) == 0x03)	/* Create LFN entry when there are composite capital
1957:ff.c          **** 		cf |= NS_LFN;
1958:ff.c          **** 	if (!(cf & NS_LFN)) {						/* When LFN is in 8.3 format without extended character, NT flags are c
1959:ff.c          **** 		if ((b & 0x03) == 0x01) cf |= NS_EXT;	/* NT flag (Extension has only small capital) */
1960:ff.c          **** 		if ((b & 0x0C) == 0x04) cf |= NS_BODY;	/* NT flag (Filename has only small capital) */
1961:ff.c          **** 	}
1962:ff.c          **** 
1963:ff.c          **** 	dp->fn[NSFLAG] = cf;	/* SFN is created */
1964:ff.c          **** 
1965:ff.c          **** 	return FR_OK;
1966:ff.c          **** 
1967:ff.c          **** 
1968:ff.c          **** #else	/* Non-LFN configuration */
1969:ff.c          **** 	BYTE b, c, d, *sfn;
1970:ff.c          **** 	UINT ni, si, i;
1971:ff.c          **** 	const char *p;
1972:ff.c          **** 
1973:ff.c          **** 	/* Create file name in directory form */
1974:ff.c          **** 	for (p = *path; *p == '/' || *p == '\\'; p++) ;	/* Skip duplicated separator */
 381              		.loc 1 1974 0
 382 0006 0C68     		ldr	r4, [r1]
 383              	.LVL45:
 384 0008 00E0     		b	.L29
 385              	.L30:
 386              		.loc 1 1974 0 is_stmt 0 discriminator 5
 387 000a 0134     		adds	r4, r4, #1
 388              	.LVL46:
 389              	.L29:
 390              		.loc 1 1974 0 discriminator 1
 391 000c 2378     		ldrb	r3, [r4]	@ zero_extendqisi2
 392 000e 2F2B     		cmp	r3, #47
 393 0010 FBD0     		beq	.L30
 394              		.loc 1 1974 0 discriminator 4
 395 0012 5C2B     		cmp	r3, #92
 396 0014 F9D0     		beq	.L30
1975:ff.c          **** 	sfn = dp->fn;
 397              		.loc 1 1975 0 is_stmt 1
 398 0016 8769     		ldr	r7, [r0, #24]
 399              	.LVL47:
1976:ff.c          **** 	mem_set(sfn, ' ', 11);
 400              		.loc 1 1976 0
 401 0018 0B22     		movs	r2, #11
 402 001a 2021     		movs	r1, #32
 403              	.LVL48:
 404 001c 3846     		mov	r0, r7
 405              	.LVL49:
 406 001e FFF7FEFF 		bl	mem_set
 407              	.LVL50:
1977:ff.c          **** 	si = i = b = 0; ni = 8;
1978:ff.c          **** #if _FS_RPATH
1979:ff.c          **** 	if (p[si] == '.') { /* Is this a dot entry? */
 408              		.loc 1 1979 0
 409 0022 2378     		ldrb	r3, [r4]	@ zero_extendqisi2
 410 0024 2E2B     		cmp	r3, #46
ARM GAS  C:\Users\linar\AppData\Local\Temp\ccAaFYxm.s 			page 43


 411 0026 1FD1     		bne	.L48
 412 0028 0021     		movs	r1, #0
 413 002a 0B46     		mov	r3, r1
 414              	.LVL51:
 415              	.L33:
1980:ff.c          **** 		for (;;) {
1981:ff.c          **** 			c = (BYTE)p[si++];
 416              		.loc 1 1981 0
 417 002c 5A1C     		adds	r2, r3, #1
 418              	.LVL52:
 419 002e E35C     		ldrb	r3, [r4, r3]	@ zero_extendqisi2
 420              	.LVL53:
1982:ff.c          **** 			if (c != '.' || si >= 3) break;
 421              		.loc 1 1982 0
 422 0030 2E2B     		cmp	r3, #46
 423 0032 05D1     		bne	.L32
 424              		.loc 1 1982 0 is_stmt 0 discriminator 1
 425 0034 022A     		cmp	r2, #2
 426 0036 03D8     		bhi	.L32
 427              	.LVL54:
1983:ff.c          **** 			sfn[i++] = c;
 428              		.loc 1 1983 0 is_stmt 1
 429 0038 7B54     		strb	r3, [r7, r1]
1981:ff.c          **** 			if (c != '.' || si >= 3) break;
 430              		.loc 1 1981 0
 431 003a 1346     		mov	r3, r2
 432              	.LVL55:
 433              		.loc 1 1983 0
 434 003c 0131     		adds	r1, r1, #1
 435              	.LVL56:
1984:ff.c          **** 		}
 436              		.loc 1 1984 0
 437 003e F5E7     		b	.L33
 438              	.LVL57:
 439              	.L32:
1985:ff.c          **** 		if (c != '/' && c != '\\' && c > ' ') return FR_INVALID_NAME;
 440              		.loc 1 1985 0
 441 0040 2F2B     		cmp	r3, #47
 442 0042 03D0     		beq	.L34
 443              		.loc 1 1985 0 is_stmt 0 discriminator 1
 444 0044 5C2B     		cmp	r3, #92
 445 0046 01D0     		beq	.L34
 446              		.loc 1 1985 0 discriminator 2
 447 0048 202B     		cmp	r3, #32
 448 004a 6FD8     		bhi	.L49
 449              	.L34:
1986:ff.c          **** 		*path = &p[si];									/* Return pointer to the next segment */
 450              		.loc 1 1986 0 is_stmt 1
 451 004c 2244     		add	r2, r2, r4
 452              	.LVL58:
 453 004e C9F80020 		str	r2, [r9]
1987:ff.c          **** 		sfn[NSFLAG] = (c <= ' ') ? NS_LAST | NS_DOT : NS_DOT;	/* Set last segment flag if end of path */
 454              		.loc 1 1987 0
 455 0052 202B     		cmp	r3, #32
 456 0054 01D8     		bhi	.L50
 457 0056 2423     		movs	r3, #36
 458              	.LVL59:
ARM GAS  C:\Users\linar\AppData\Local\Temp\ccAaFYxm.s 			page 44


 459 0058 00E0     		b	.L36
 460              	.LVL60:
 461              	.L50:
 462 005a 2023     		movs	r3, #32
 463              	.LVL61:
 464              	.L36:
 465              		.loc 1 1987 0 is_stmt 0 discriminator 4
 466 005c FB72     		strb	r3, [r7, #11]
1988:ff.c          **** 		return FR_OK;
 467              		.loc 1 1988 0 is_stmt 1 discriminator 4
 468 005e 0020     		movs	r0, #0
 469 0060 BDE8F88F 		pop	{r3, r4, r5, r6, r7, r8, r9, r10, fp, pc}
 470              	.LVL62:
 471              	.L40:
 472 0064 5346     		mov	r3, r10
 473 0066 04E0     		b	.L31
 474              	.LVL63:
 475              	.L48:
 476 0068 0026     		movs	r6, #0
 477 006a 3346     		mov	r3, r6
 478 006c 4FF00808 		mov	r8, #8
 479 0070 B346     		mov	fp, r6
 480              	.LVL64:
 481              	.L31:
1989:ff.c          **** 	}
1990:ff.c          **** #endif
1991:ff.c          **** 	for (;;) {
1992:ff.c          **** 		c = (BYTE)p[si++];
 482              		.loc 1 1992 0
 483 0072 03F1010A 		add	r10, r3, #1
 484              	.LVL65:
 485 0076 E55C     		ldrb	r5, [r4, r3]	@ zero_extendqisi2
 486              	.LVL66:
1993:ff.c          **** 		if (c <= ' ' || c == '/' || c == '\\') break;	/* Break on end of segment */
 487              		.loc 1 1993 0
 488 0078 202D     		cmp	r5, #32
 489 007a 31D9     		bls	.L37
 490              		.loc 1 1993 0 is_stmt 0 discriminator 1
 491 007c 2F2D     		cmp	r5, #47
 492 007e 2FD0     		beq	.L37
 493              		.loc 1 1993 0 discriminator 2
 494 0080 5C2D     		cmp	r5, #92
 495 0082 2DD0     		beq	.L37
1994:ff.c          **** 		if (c == '.' || i >= ni) {
 496              		.loc 1 1994 0 is_stmt 1
 497 0084 2E2D     		cmp	r5, #46
 498 0086 01D0     		beq	.L38
 499              		.loc 1 1994 0 is_stmt 0 discriminator 1
 500 0088 B045     		cmp	r8, r6
 501 008a 0CD8     		bhi	.L39
 502              	.L38:
1995:ff.c          **** 			if (ni != 8 || c != '.') return FR_INVALID_NAME;
 503              		.loc 1 1995 0 is_stmt 1
 504 008c B8F1080F 		cmp	r8, #8
 505 0090 4FD1     		bne	.L51
 506              		.loc 1 1995 0 is_stmt 0 discriminator 2
 507 0092 2E2D     		cmp	r5, #46
ARM GAS  C:\Users\linar\AppData\Local\Temp\ccAaFYxm.s 			page 45


 508 0094 50D1     		bne	.L52
 509              	.LVL67:
1996:ff.c          **** 			i = 8; ni = 11;
1997:ff.c          **** 			b <<= 2; continue;
 510              		.loc 1 1997 0 is_stmt 1
 511 0096 4FEA8B0B 		lsl	fp, fp, #2
 512              	.LVL68:
 513 009a 5FFA8BFB 		uxtb	fp, fp
 514              	.LVL69:
1996:ff.c          **** 			i = 8; ni = 11;
 515              		.loc 1 1996 0
 516 009e 0826     		movs	r6, #8
 517 00a0 4FF00B08 		mov	r8, #11
 518              		.loc 1 1997 0
 519 00a4 DEE7     		b	.L40
 520              	.LVL70:
 521              	.L39:
1998:ff.c          **** 		}
1999:ff.c          **** 		if (c >= 0x80) {				/* Extended character? */
 522              		.loc 1 1999 0
 523 00a6 15F0800F 		tst	r5, #128
 524 00aa 48D1     		bne	.L53
2000:ff.c          **** 			b |= 3;						/* Eliminate NT flag */
2001:ff.c          **** #ifdef _EXCVT
2002:ff.c          **** 			c = ExCvt[c - 0x80];		/* To upper extended characters (SBCS cfg) */
2003:ff.c          **** #else
2004:ff.c          **** #if !_DF1S
2005:ff.c          **** 			return FR_INVALID_NAME;		/* Reject extended characters (ASCII cfg) */
2006:ff.c          **** #endif
2007:ff.c          **** #endif
2008:ff.c          **** 		}
2009:ff.c          **** 		if (IsDBCS1(c)) {				/* Check if it is a DBC 1st byte (always false at SBCS cfg.) */
2010:ff.c          **** 			d = (BYTE)p[si++];			/* Get 2nd byte */
2011:ff.c          **** 			if (!IsDBCS2(d) || i >= ni - 1)	/* Reject invalid DBC */
2012:ff.c          **** 				return FR_INVALID_NAME;
2013:ff.c          **** 			sfn[i++] = c;
2014:ff.c          **** 			sfn[i++] = d;
2015:ff.c          **** 		} else {						/* SBC */
2016:ff.c          **** 			if (chk_chr("\"*+,:;<=>\?[]|\x7F", c))	/* Reject illegal chrs for SFN */
 525              		.loc 1 2016 0
 526 00ac 2946     		mov	r1, r5
 527 00ae 2848     		ldr	r0, .L58
 528 00b0 FFF7FEFF 		bl	chk_chr
 529              	.LVL71:
 530 00b4 0028     		cmp	r0, #0
 531 00b6 45D1     		bne	.L54
2017:ff.c          **** 				return FR_INVALID_NAME;
2018:ff.c          **** 			if (IsUpper(c)) {			/* ASCII large capital? */
 532              		.loc 1 2018 0
 533 00b8 A5F14103 		sub	r3, r5, #65
 534 00bc DBB2     		uxtb	r3, r3
 535 00be 192B     		cmp	r3, #25
 536 00c0 02D8     		bhi	.L41
2019:ff.c          **** 				b |= 2;
 537              		.loc 1 2019 0
 538 00c2 4BF0020B 		orr	fp, fp, #2
 539              	.LVL72:
ARM GAS  C:\Users\linar\AppData\Local\Temp\ccAaFYxm.s 			page 46


 540 00c6 08E0     		b	.L42
 541              	.L41:
2020:ff.c          **** 			} else {
2021:ff.c          **** 				if (IsLower(c)) {		/* ASCII small capital? */
 542              		.loc 1 2021 0
 543 00c8 A5F16103 		sub	r3, r5, #97
 544 00cc DBB2     		uxtb	r3, r3
 545 00ce 192B     		cmp	r3, #25
 546 00d0 03D8     		bhi	.L42
2022:ff.c          **** 					b |= 1; c -= 0x20;
 547              		.loc 1 2022 0
 548 00d2 4BF0010B 		orr	fp, fp, #1
 549              	.LVL73:
 550 00d6 203D     		subs	r5, r5, #32
 551              	.LVL74:
 552 00d8 EDB2     		uxtb	r5, r5
 553              	.LVL75:
 554              	.L42:
2023:ff.c          **** 				}
2024:ff.c          **** 			}
2025:ff.c          **** 			sfn[i++] = c;
 555              		.loc 1 2025 0
 556 00da BD55     		strb	r5, [r7, r6]
 557 00dc 0136     		adds	r6, r6, #1
 558              	.LVL76:
 559 00de C1E7     		b	.L40
 560              	.L37:
2026:ff.c          **** 		}
2027:ff.c          **** 	}
2028:ff.c          **** 	*path = &p[si];						/* Return pointer to the next segment */
 561              		.loc 1 2028 0
 562 00e0 5444     		add	r4, r4, r10
 563              	.LVL77:
 564 00e2 C9F80040 		str	r4, [r9]
2029:ff.c          **** 	c = (c <= ' ') ? NS_LAST : 0;		/* Set last segment flag if end of path */
 565              		.loc 1 2029 0
 566 00e6 202D     		cmp	r5, #32
 567 00e8 01D8     		bhi	.L55
 568 00ea 0423     		movs	r3, #4
 569 00ec 00E0     		b	.L43
 570              	.L55:
 571 00ee 0023     		movs	r3, #0
 572              	.L43:
 573              	.LVL78:
2030:ff.c          **** 
2031:ff.c          **** 	if (!i) return FR_INVALID_NAME;		/* Reject nul string */
 574              		.loc 1 2031 0 discriminator 4
 575 00f0 5EB3     		cbz	r6, .L56
2032:ff.c          **** 	if (sfn[0] == DDEM) sfn[0] = RDDEM;	/* When first character collides with DDEM, replace it with RD
 576              		.loc 1 2032 0
 577 00f2 3A78     		ldrb	r2, [r7]	@ zero_extendqisi2
 578 00f4 E52A     		cmp	r2, #229
 579 00f6 01D1     		bne	.L44
 580              		.loc 1 2032 0 is_stmt 0 discriminator 1
 581 00f8 0522     		movs	r2, #5
 582 00fa 3A70     		strb	r2, [r7]
 583              	.L44:
ARM GAS  C:\Users\linar\AppData\Local\Temp\ccAaFYxm.s 			page 47


2033:ff.c          **** 
2034:ff.c          **** 	if (ni == 8) b <<= 2;
 584              		.loc 1 2034 0 is_stmt 1
 585 00fc B8F1080F 		cmp	r8, #8
 586 0100 03D1     		bne	.L45
 587              		.loc 1 2034 0 is_stmt 0 discriminator 1
 588 0102 4FEA8B0B 		lsl	fp, fp, #2
 589              	.LVL79:
 590 0106 5FFA8BFB 		uxtb	fp, fp
 591              	.LVL80:
 592              	.L45:
2035:ff.c          **** 	if ((b & 0x03) == 0x01) c |= NS_EXT;	/* NT flag (Name extension has only small capital) */
 593              		.loc 1 2035 0 is_stmt 1
 594 010a 0BF00302 		and	r2, fp, #3
 595 010e 012A     		cmp	r2, #1
 596 0110 01D1     		bne	.L46
 597              		.loc 1 2035 0 is_stmt 0 discriminator 1
 598 0112 43F01003 		orr	r3, r3, #16
 599              	.LVL81:
 600              	.L46:
2036:ff.c          **** 	if ((b & 0x0C) == 0x04) c |= NS_BODY;	/* NT flag (Name body has only small capital) */
 601              		.loc 1 2036 0 is_stmt 1
 602 0116 0BF00C0B 		and	fp, fp, #12
 603              	.LVL82:
 604 011a BBF1040F 		cmp	fp, #4
 605 011e 01D1     		bne	.L47
 606              		.loc 1 2036 0 is_stmt 0 discriminator 1
 607 0120 43F00803 		orr	r3, r3, #8
 608              	.LVL83:
 609              	.L47:
2037:ff.c          **** 
2038:ff.c          **** 	sfn[NSFLAG] = c;		/* Store NT flag, File name is created */
 610              		.loc 1 2038 0 is_stmt 1
 611 0124 FB72     		strb	r3, [r7, #11]
2039:ff.c          **** 
2040:ff.c          **** 	return FR_OK;
 612              		.loc 1 2040 0
 613 0126 0020     		movs	r0, #0
 614 0128 BDE8F88F 		pop	{r3, r4, r5, r6, r7, r8, r9, r10, fp, pc}
 615              	.LVL84:
 616              	.L49:
1985:ff.c          **** 		*path = &p[si];									/* Return pointer to the next segment */
 617              		.loc 1 1985 0
 618 012c 0620     		movs	r0, #6
 619 012e BDE8F88F 		pop	{r3, r4, r5, r6, r7, r8, r9, r10, fp, pc}
 620              	.LVL85:
 621              	.L51:
1995:ff.c          **** 			i = 8; ni = 11;
 622              		.loc 1 1995 0
 623 0132 0620     		movs	r0, #6
 624 0134 BDE8F88F 		pop	{r3, r4, r5, r6, r7, r8, r9, r10, fp, pc}
 625              	.LVL86:
 626              	.L52:
 627 0138 0620     		movs	r0, #6
 628 013a BDE8F88F 		pop	{r3, r4, r5, r6, r7, r8, r9, r10, fp, pc}
 629              	.LVL87:
 630              	.L53:
ARM GAS  C:\Users\linar\AppData\Local\Temp\ccAaFYxm.s 			page 48


2005:ff.c          **** #endif
 631              		.loc 1 2005 0
 632 013e 0620     		movs	r0, #6
 633 0140 BDE8F88F 		pop	{r3, r4, r5, r6, r7, r8, r9, r10, fp, pc}
 634              	.LVL88:
 635              	.L54:
2017:ff.c          **** 			if (IsUpper(c)) {			/* ASCII large capital? */
 636              		.loc 1 2017 0
 637 0144 0620     		movs	r0, #6
 638 0146 BDE8F88F 		pop	{r3, r4, r5, r6, r7, r8, r9, r10, fp, pc}
 639              	.LVL89:
 640              	.L56:
2031:ff.c          **** 	if (sfn[0] == DDEM) sfn[0] = RDDEM;	/* When first character collides with DDEM, replace it with RD
 641              		.loc 1 2031 0
 642 014a 0620     		movs	r0, #6
2041:ff.c          **** #endif
2042:ff.c          **** }
 643              		.loc 1 2042 0
 644 014c BDE8F88F 		pop	{r3, r4, r5, r6, r7, r8, r9, r10, fp, pc}
 645              	.LVL90:
 646              	.L59:
 647              		.align	2
 648              	.L58:
 649 0150 00000000 		.word	.LC0
 650              		.cfi_endproc
 651              	.LFE22:
 652              		.size	create_name, .-create_name
 653              		.section	.text.get_ldnumber,"ax",%progbits
 654              		.align	2
 655              		.thumb
 656              		.thumb_func
 657              		.type	get_ldnumber, %function
 658              	get_ldnumber:
 659              	.LFB24:
2043:ff.c          **** 
2044:ff.c          **** 
2045:ff.c          **** 
2046:ff.c          **** 
2047:ff.c          **** /*-----------------------------------------------------------------------*/
2048:ff.c          **** /* Follow a file path                                                    */
2049:ff.c          **** /*-----------------------------------------------------------------------*/
2050:ff.c          **** 
2051:ff.c          **** static
2052:ff.c          **** FRESULT follow_path (	/* FR_OK(0): successful, !=0: error code */
2053:ff.c          **** 	DIR* dp,			/* Directory object to return last directory and found object */
2054:ff.c          **** 	const TCHAR* path	/* Full-path string to find a file or directory */
2055:ff.c          **** )
2056:ff.c          **** {
2057:ff.c          **** 	FRESULT res;
2058:ff.c          **** 	BYTE *dir, ns;
2059:ff.c          **** 
2060:ff.c          **** 
2061:ff.c          **** #if _FS_RPATH
2062:ff.c          **** 	if (*path == '/' || *path == '\\') {	/* There is a heading separator */
2063:ff.c          **** 		path++;	dp->sclust = 0;				/* Strip it and start from the root directory */
2064:ff.c          **** 	} else {								/* No heading separator */
2065:ff.c          **** 		dp->sclust = dp->fs->cdir;			/* Start from the current directory */
ARM GAS  C:\Users\linar\AppData\Local\Temp\ccAaFYxm.s 			page 49


2066:ff.c          **** 	}
2067:ff.c          **** #else
2068:ff.c          **** 	if (*path == '/' || *path == '\\')		/* Strip heading separator if exist */
2069:ff.c          **** 		path++;
2070:ff.c          **** 	dp->sclust = 0;							/* Always start from the root directory */
2071:ff.c          **** #endif
2072:ff.c          **** 
2073:ff.c          **** 	if ((UINT)*path < ' ') {				/* Null path name is the origin directory itself */
2074:ff.c          **** 		res = dir_sdi(dp, 0);
2075:ff.c          **** 		dp->dir = 0;
2076:ff.c          **** 	} else {								/* Follow path */
2077:ff.c          **** 		for (;;) {
2078:ff.c          **** 			res = create_name(dp, &path);	/* Get a segment name of the path */
2079:ff.c          **** 			if (res != FR_OK) break;
2080:ff.c          **** 			res = dir_find(dp);				/* Find an object with the sagment name */
2081:ff.c          **** 			ns = dp->fn[NSFLAG];
2082:ff.c          **** 			if (res != FR_OK) {				/* Failed to find the object */
2083:ff.c          **** 				if (res == FR_NO_FILE) {	/* Object is not found */
2084:ff.c          **** 					if (_FS_RPATH && (ns & NS_DOT)) {	/* If dot entry is not exist, */
2085:ff.c          **** 						dp->sclust = 0; dp->dir = 0;	/* it is the root directory and stay there */
2086:ff.c          **** 						if (!(ns & NS_LAST)) continue;	/* Continue to follow if not last segment */
2087:ff.c          **** 						res = FR_OK;					/* Ended at the root directroy. Function completed. */
2088:ff.c          **** 					} else {							/* Could not find the object */
2089:ff.c          **** 						if (!(ns & NS_LAST)) res = FR_NO_PATH;	/* Adjust error code if not last segment */
2090:ff.c          **** 					}
2091:ff.c          **** 				}
2092:ff.c          **** 				break;
2093:ff.c          **** 			}
2094:ff.c          **** 			if (ns & NS_LAST) break;			/* Last segment matched. Function completed. */
2095:ff.c          **** 			dir = dp->dir;						/* Follow the sub-directory */
2096:ff.c          **** 			if (!(dir[DIR_Attr] & AM_DIR)) {	/* It is not a sub-directory and cannot follow */
2097:ff.c          **** 				res = FR_NO_PATH; break;
2098:ff.c          **** 			}
2099:ff.c          **** 			dp->sclust = ld_clust(dp->fs, dir);
2100:ff.c          **** 		}
2101:ff.c          **** 	}
2102:ff.c          **** 
2103:ff.c          **** 	return res;
2104:ff.c          **** }
2105:ff.c          **** 
2106:ff.c          **** 
2107:ff.c          **** 
2108:ff.c          **** 
2109:ff.c          **** /*-----------------------------------------------------------------------*/
2110:ff.c          **** /* Get logical drive number from path name                               */
2111:ff.c          **** /*-----------------------------------------------------------------------*/
2112:ff.c          **** 
2113:ff.c          **** static
2114:ff.c          **** int get_ldnumber (		/* Returns logical drive number (-1:invalid drive) */
2115:ff.c          **** 	const TCHAR** path	/* Pointer to pointer to the path name */
2116:ff.c          **** )
2117:ff.c          **** {
 660              		.loc 1 2117 0
 661              		.cfi_startproc
 662              		@ args = 0, pretend = 0, frame = 0
 663              		@ frame_needed = 0, uses_anonymous_args = 0
 664              		@ link register save eliminated.
ARM GAS  C:\Users\linar\AppData\Local\Temp\ccAaFYxm.s 			page 50


 665              	.LVL91:
2118:ff.c          **** 	const TCHAR *tp, *tt;
2119:ff.c          **** 	UINT i;
2120:ff.c          **** 	int vol = -1;
2121:ff.c          **** #if _STR_VOLUME_ID		/* Find string drive id */
2122:ff.c          **** 	static const char* const str[] = {_VOLUME_STRS};
2123:ff.c          **** 	const char *sp;
2124:ff.c          **** 	char c;
2125:ff.c          **** 	TCHAR tc;
2126:ff.c          **** #endif
2127:ff.c          **** 
2128:ff.c          **** 
2129:ff.c          **** 	if (*path) {	/* If the pointer is not a null */
 666              		.loc 1 2129 0
 667 0000 0168     		ldr	r1, [r0]
 668 0002 21B9     		cbnz	r1, .L65
2120:ff.c          **** #if _STR_VOLUME_ID		/* Find string drive id */
 669              		.loc 1 2120 0
 670 0004 4FF0FF33 		mov	r3, #-1
 671 0008 16E0     		b	.L71
 672              	.LVL92:
 673              	.L64:
2130:ff.c          **** 		for (tt = *path; (UINT)*tt >= (_USE_LFN ? ' ' : '!') && *tt != ':'; tt++) ;	/* Find ':' in the pa
 674              		.loc 1 2130 0 discriminator 4
 675 000a 0132     		adds	r2, r2, #1
 676              	.LVL93:
 677 000c 00E0     		b	.L61
 678              	.LVL94:
 679              	.L65:
 680 000e 0A46     		mov	r2, r1
 681              	.L61:
 682              	.LVL95:
 683              		.loc 1 2130 0 is_stmt 0 discriminator 1
 684 0010 1378     		ldrb	r3, [r2]	@ zero_extendqisi2
 685 0012 202B     		cmp	r3, #32
 686 0014 01D9     		bls	.L63
 687              		.loc 1 2130 0 discriminator 3
 688 0016 3A2B     		cmp	r3, #58
 689 0018 F7D1     		bne	.L64
 690              	.L63:
2131:ff.c          **** 		if (*tt == ':') {	/* If a ':' is exist in the path name */
 691              		.loc 1 2131 0 is_stmt 1
 692 001a 3A2B     		cmp	r3, #58
 693 001c 0BD1     		bne	.L66
2117:ff.c          **** 	const TCHAR *tp, *tt;
 694              		.loc 1 2117 0
 695 001e 10B4     		push	{r4}
 696              		.cfi_def_cfa_offset 4
 697              		.cfi_offset 4, -4
 698              	.LVL96:
2132:ff.c          **** 			tp = *path;
2133:ff.c          **** 			i = *tp++ - '0'; 
 699              		.loc 1 2133 0
 700 0020 4C1C     		adds	r4, r1, #1
 701              	.LVL97:
 702 0022 0B78     		ldrb	r3, [r1]	@ zero_extendqisi2
 703 0024 303B     		subs	r3, r3, #48
ARM GAS  C:\Users\linar\AppData\Local\Temp\ccAaFYxm.s 			page 51


 704              	.LVL98:
2134:ff.c          **** 			if (i < 10 && tp == tt) {	/* Is there a numeric drive id? */
 705              		.loc 1 2134 0
 706 0026 092B     		cmp	r3, #9
 707 0028 08D8     		bhi	.L67
 708              		.loc 1 2134 0 is_stmt 0 discriminator 1
 709 002a A242     		cmp	r2, r4
 710 002c 09D1     		bne	.L68
2135:ff.c          **** 				if (i < _VOLUMES) {	/* If a drive id is found, get the value and strip it */
 711              		.loc 1 2135 0 is_stmt 1
 712 002e 5BB9     		cbnz	r3, .L69
 713              	.LVL99:
2136:ff.c          **** 					vol = (int)i;
2137:ff.c          **** 					*path = ++tt;
 714              		.loc 1 2137 0
 715 0030 0132     		adds	r2, r2, #1
 716              	.LVL100:
 717 0032 0260     		str	r2, [r0]
 718 0034 0AE0     		b	.L62
 719              	.LVL101:
 720              	.L66:
 721              		.cfi_def_cfa_offset 0
 722              		.cfi_restore 4
2138:ff.c          **** 				}
2139:ff.c          **** 			}
2140:ff.c          **** #if _STR_VOLUME_ID
2141:ff.c          **** 			 else {	/* No numeric drive number, find string drive id */
2142:ff.c          **** 				i = 0; tt++;
2143:ff.c          **** 				do {
2144:ff.c          **** 					sp = str[i]; tp = *path;
2145:ff.c          **** 					do {	/* Compare a string drive id with path name */
2146:ff.c          **** 						c = *sp++; tc = *tp++;
2147:ff.c          **** 						if (IsLower(tc)) tc -= 0x20;
2148:ff.c          **** 					} while (c && (TCHAR)c == tc);
2149:ff.c          **** 				} while ((c || tp != tt) && ++i < _VOLUMES);	/* Repeat for each id until pattern match */
2150:ff.c          **** 				if (i < _VOLUMES) {	/* If a drive id is found, get the value and strip it */
2151:ff.c          **** 					vol = (int)i;
2152:ff.c          **** 					*path = tt;
2153:ff.c          **** 				}
2154:ff.c          **** 			}
2155:ff.c          **** #endif
2156:ff.c          **** 			return vol;
2157:ff.c          **** 		}
2158:ff.c          **** #if _FS_RPATH && _VOLUMES >= 2
2159:ff.c          **** 		vol = CurrVol;	/* Current drive */
2160:ff.c          **** #else
2161:ff.c          **** 		vol = 0;		/* Drive 0 */
 723              		.loc 1 2161 0
 724 0036 0023     		movs	r3, #0
 725              	.LVL102:
 726              	.L71:
2162:ff.c          **** #endif
2163:ff.c          **** 	}
2164:ff.c          **** 	return vol;
2165:ff.c          **** }
 727              		.loc 1 2165 0
 728 0038 1846     		mov	r0, r3
ARM GAS  C:\Users\linar\AppData\Local\Temp\ccAaFYxm.s 			page 52


 729              	.LVL103:
 730 003a 7047     		bx	lr
 731              	.LVL104:
 732              	.L67:
 733              		.cfi_def_cfa_offset 4
 734              		.cfi_offset 4, -4
2120:ff.c          **** #if _STR_VOLUME_ID		/* Find string drive id */
 735              		.loc 1 2120 0
 736 003c 4FF0FF33 		mov	r3, #-1
 737              	.LVL105:
 738 0040 04E0     		b	.L62
 739              	.LVL106:
 740              	.L68:
 741 0042 4FF0FF33 		mov	r3, #-1
 742              	.LVL107:
 743 0046 01E0     		b	.L62
 744              	.LVL108:
 745              	.L69:
 746 0048 4FF0FF33 		mov	r3, #-1
 747              	.LVL109:
 748              	.L62:
 749              		.loc 1 2165 0
 750 004c 1846     		mov	r0, r3
 751              	.LVL110:
 752 004e 10BC     		pop	{r4}
 753              		.cfi_restore 4
 754              		.cfi_def_cfa_offset 0
 755              	.LVL111:
 756 0050 7047     		bx	lr
 757              		.cfi_endproc
 758              	.LFE24:
 759              		.size	get_ldnumber, .-get_ldnumber
 760 0052 00BF     		.section	.text.sync_window,"ax",%progbits
 761              		.align	2
 762              		.thumb
 763              		.thumb_func
 764              		.type	sync_window, %function
 765              	sync_window:
 766              	.LFB4:
 703:ff.c          **** 	DWORD wsect;
 767              		.loc 1 703 0
 768              		.cfi_startproc
 769              		@ args = 0, pretend = 0, frame = 0
 770              		@ frame_needed = 0, uses_anonymous_args = 0
 771              	.LVL112:
 772 0000 F8B5     		push	{r3, r4, r5, r6, r7, lr}
 773              		.cfi_def_cfa_offset 24
 774              		.cfi_offset 3, -24
 775              		.cfi_offset 4, -20
 776              		.cfi_offset 5, -16
 777              		.cfi_offset 6, -12
 778              		.cfi_offset 7, -8
 779              		.cfi_offset 14, -4
 780              	.LVL113:
 709:ff.c          **** 		wsect = fs->winsect;	/* Current sector number */
 781              		.loc 1 709 0
 782 0002 0379     		ldrb	r3, [r0, #4]	@ zero_extendqisi2
ARM GAS  C:\Users\linar\AppData\Local\Temp\ccAaFYxm.s 			page 53


 783 0004 03B3     		cbz	r3, .L76
 784 0006 0446     		mov	r4, r0
 710:ff.c          **** 		if (disk_write(fs->drv, fs->win, wsect, 1) != RES_OK) {
 785              		.loc 1 710 0
 786 0008 066B     		ldr	r6, [r0, #48]
 787              	.LVL114:
 711:ff.c          **** 			res = FR_DISK_ERR;
 788              		.loc 1 711 0
 789 000a 00F13407 		add	r7, r0, #52
 790 000e 0123     		movs	r3, #1
 791 0010 3246     		mov	r2, r6
 792 0012 3946     		mov	r1, r7
 793 0014 4078     		ldrb	r0, [r0, #1]	@ zero_extendqisi2
 794              	.LVL115:
 795 0016 FFF7FEFF 		bl	disk_write
 796              	.LVL116:
 797 001a B8B9     		cbnz	r0, .L77
 714:ff.c          **** 			if (wsect - fs->fatbase < fs->fsize) {		/* Is it in the FAT area? */
 798              		.loc 1 714 0
 799 001c 0023     		movs	r3, #0
 800 001e 2371     		strb	r3, [r4, #4]
 715:ff.c          **** 				for (nf = fs->n_fats; nf >= 2; nf--) {	/* Reflect the change to all FAT copies */
 801              		.loc 1 715 0
 802 0020 636A     		ldr	r3, [r4, #36]
 803 0022 F31A     		subs	r3, r6, r3
 804 0024 E269     		ldr	r2, [r4, #28]
 805 0026 9342     		cmp	r3, r2
 806 0028 12D2     		bcs	.L78
 716:ff.c          **** 					wsect += fs->fsize;
 807              		.loc 1 716 0
 808 002a E578     		ldrb	r5, [r4, #3]	@ zero_extendqisi2
 809              	.LVL117:
 810 002c 08E0     		b	.L74
 811              	.L75:
 717:ff.c          **** 					disk_write(fs->drv, fs->win, wsect, 1);
 812              		.loc 1 717 0 discriminator 3
 813 002e E369     		ldr	r3, [r4, #28]
 814 0030 1E44     		add	r6, r6, r3
 815              	.LVL118:
 718:ff.c          **** 				}
 816              		.loc 1 718 0 discriminator 3
 817 0032 0123     		movs	r3, #1
 818 0034 3246     		mov	r2, r6
 819 0036 3946     		mov	r1, r7
 820 0038 6078     		ldrb	r0, [r4, #1]	@ zero_extendqisi2
 821 003a FFF7FEFF 		bl	disk_write
 822              	.LVL119:
 716:ff.c          **** 					wsect += fs->fsize;
 823              		.loc 1 716 0 discriminator 3
 824 003e 013D     		subs	r5, r5, #1
 825              	.LVL120:
 826              	.L74:
 716:ff.c          **** 					wsect += fs->fsize;
 827              		.loc 1 716 0 is_stmt 0 discriminator 1
 828 0040 012D     		cmp	r5, #1
 829 0042 F4D8     		bhi	.L75
 706:ff.c          **** 
ARM GAS  C:\Users\linar\AppData\Local\Temp\ccAaFYxm.s 			page 54


 830              		.loc 1 706 0 is_stmt 1
 831 0044 0020     		movs	r0, #0
 832 0046 F8BD     		pop	{r3, r4, r5, r6, r7, pc}
 833              	.LVL121:
 834              	.L76:
 835 0048 0020     		movs	r0, #0
 836              	.LVL122:
 837 004a F8BD     		pop	{r3, r4, r5, r6, r7, pc}
 838              	.LVL123:
 839              	.L77:
 712:ff.c          **** 		} else {
 840              		.loc 1 712 0
 841 004c 0120     		movs	r0, #1
 842 004e F8BD     		pop	{r3, r4, r5, r6, r7, pc}
 843              	.LVL124:
 844              	.L78:
 706:ff.c          **** 
 845              		.loc 1 706 0
 846 0050 0020     		movs	r0, #0
 847              	.LVL125:
 724:ff.c          **** #endif
 848              		.loc 1 724 0
 849 0052 F8BD     		pop	{r3, r4, r5, r6, r7, pc}
 850              		.cfi_endproc
 851              	.LFE4:
 852              		.size	sync_window, .-sync_window
 853              		.section	.text.move_window,"ax",%progbits
 854              		.align	2
 855              		.thumb
 856              		.thumb_func
 857              		.type	move_window, %function
 858              	move_window:
 859              	.LFB5:
 733:ff.c          **** 	FRESULT res = FR_OK;
 860              		.loc 1 733 0
 861              		.cfi_startproc
 862              		@ args = 0, pretend = 0, frame = 0
 863              		@ frame_needed = 0, uses_anonymous_args = 0
 864              	.LVL126:
 865 0000 70B5     		push	{r4, r5, r6, lr}
 866              		.cfi_def_cfa_offset 16
 867              		.cfi_offset 4, -16
 868              		.cfi_offset 5, -12
 869              		.cfi_offset 6, -8
 870              		.cfi_offset 14, -4
 871              	.LVL127:
 737:ff.c          **** #if !_FS_READONLY
 872              		.loc 1 737 0
 873 0002 036B     		ldr	r3, [r0, #48]
 874 0004 8B42     		cmp	r3, r1
 875 0006 12D0     		beq	.L83
 876 0008 0446     		mov	r4, r0
 877 000a 0D46     		mov	r5, r1
 739:ff.c          **** #endif
 878              		.loc 1 739 0
 879 000c FFF7FEFF 		bl	sync_window
 880              	.LVL128:
ARM GAS  C:\Users\linar\AppData\Local\Temp\ccAaFYxm.s 			page 55


 741:ff.c          **** 			if (disk_read(fs->drv, fs->win, sector, 1) != RES_OK) {
 881              		.loc 1 741 0
 882 0010 0646     		mov	r6, r0
 883 0012 68B9     		cbnz	r0, .L81
 742:ff.c          **** 				sector = 0xFFFFFFFF;	/* Invalidate window if data is not reliable */
 884              		.loc 1 742 0
 885 0014 0123     		movs	r3, #1
 886 0016 2A46     		mov	r2, r5
 887 0018 04F13401 		add	r1, r4, #52
 888 001c 6078     		ldrb	r0, [r4, #1]	@ zero_extendqisi2
 889              	.LVL129:
 890 001e FFF7FEFF 		bl	disk_read
 891              	.LVL130:
 892 0022 10B1     		cbz	r0, .L82
 744:ff.c          **** 			}
 893              		.loc 1 744 0
 894 0024 0126     		movs	r6, #1
 743:ff.c          **** 				res = FR_DISK_ERR;
 895              		.loc 1 743 0
 896 0026 4FF0FF35 		mov	r5, #-1
 897              	.LVL131:
 898              	.L82:
 746:ff.c          **** 		}
 899              		.loc 1 746 0
 900 002a 2563     		str	r5, [r4, #48]
 901 002c 00E0     		b	.L81
 902              	.LVL132:
 903              	.L83:
 734:ff.c          **** 
 904              		.loc 1 734 0
 905 002e 0026     		movs	r6, #0
 906              	.LVL133:
 907              	.L81:
 750:ff.c          **** 
 908              		.loc 1 750 0
 909 0030 3046     		mov	r0, r6
 910 0032 70BD     		pop	{r4, r5, r6, pc}
 911              		.cfi_endproc
 912              	.LFE5:
 913              		.size	move_window, .-move_window
 914              		.section	.text.check_fs,"ax",%progbits
 915              		.align	2
 916              		.thumb
 917              		.thumb_func
 918              		.type	check_fs, %function
 919              	check_fs:
 920              	.LFB25:
2166:ff.c          **** 
2167:ff.c          **** 
2168:ff.c          **** 
2169:ff.c          **** 
2170:ff.c          **** /*-----------------------------------------------------------------------*/
2171:ff.c          **** /* Load a sector and check if it is an FAT boot sector                   */
2172:ff.c          **** /*-----------------------------------------------------------------------*/
2173:ff.c          **** 
2174:ff.c          **** static
2175:ff.c          **** BYTE check_fs (	/* 0:Valid FAT-BS, 1:Valid BS but not FAT, 2:Not a BS, 3:Disk error */
ARM GAS  C:\Users\linar\AppData\Local\Temp\ccAaFYxm.s 			page 56


2176:ff.c          **** 	FATFS* fs,	/* File system object */
2177:ff.c          **** 	DWORD sect	/* Sector# (lba) to check if it is an FAT boot record or not */
2178:ff.c          **** )
2179:ff.c          **** {
 921              		.loc 1 2179 0
 922              		.cfi_startproc
 923              		@ args = 0, pretend = 0, frame = 0
 924              		@ frame_needed = 0, uses_anonymous_args = 0
 925              	.LVL134:
 926 0000 10B5     		push	{r4, lr}
 927              		.cfi_def_cfa_offset 8
 928              		.cfi_offset 4, -8
 929              		.cfi_offset 14, -4
 930 0002 0446     		mov	r4, r0
2180:ff.c          **** 	fs->wflag = 0; fs->winsect = 0xFFFFFFFF;	/* Invaidate window */
 931              		.loc 1 2180 0
 932 0004 0023     		movs	r3, #0
 933 0006 0371     		strb	r3, [r0, #4]
 934 0008 4FF0FF33 		mov	r3, #-1
 935 000c 0363     		str	r3, [r0, #48]
2181:ff.c          **** 	if (move_window(fs, sect) != FR_OK)			/* Load boot record */
 936              		.loc 1 2181 0
 937 000e FFF7FEFF 		bl	move_window
 938              	.LVL135:
 939 0012 80BB     		cbnz	r0, .L88
2182:ff.c          **** 		return 3;
2183:ff.c          **** 
2184:ff.c          **** 	if (LD_WORD(&fs->win[BS_55AA]) != 0xAA55)	/* Check boot record signature (always placed at offset 
 940              		.loc 1 2184 0
 941 0014 94F83322 		ldrb	r2, [r4, #563]	@ zero_extendqisi2
 942 0018 94F83232 		ldrb	r3, [r4, #562]	@ zero_extendqisi2
 943 001c 43EA0223 		orr	r3, r3, r2, lsl #8
 944 0020 1BB2     		sxth	r3, r3
 945 0022 194A     		ldr	r2, .L93
 946 0024 9342     		cmp	r3, r2
 947 0026 28D1     		bne	.L89
2185:ff.c          **** 		return 2;
2186:ff.c          **** 
2187:ff.c          **** 	if ((LD_DWORD(&fs->win[BS_FilSysType]) & 0xFFFFFF) == 0x544146)		/* Check "FAT" string */
 948              		.loc 1 2187 0
 949 0028 94F86D20 		ldrb	r2, [r4, #109]	@ zero_extendqisi2
 950 002c 94F86C30 		ldrb	r3, [r4, #108]	@ zero_extendqisi2
 951 0030 1B04     		lsls	r3, r3, #16
 952 0032 43EA0263 		orr	r3, r3, r2, lsl #24
 953 0036 94F86B20 		ldrb	r2, [r4, #107]	@ zero_extendqisi2
 954 003a 43EA0223 		orr	r3, r3, r2, lsl #8
 955 003e 94F86A20 		ldrb	r2, [r4, #106]	@ zero_extendqisi2
 956 0042 1343     		orrs	r3, r3, r2
 957 0044 23F07F43 		bic	r3, r3, #-16777216
 958 0048 104A     		ldr	r2, .L93+4
 959 004a 9342     		cmp	r3, r2
 960 004c 17D0     		beq	.L90
2188:ff.c          **** 		return 0;
2189:ff.c          **** 	if ((LD_DWORD(&fs->win[BS_FilSysType32]) & 0xFFFFFF) == 0x544146)	/* Check "FAT" string */
 961              		.loc 1 2189 0
 962 004e 94F88920 		ldrb	r2, [r4, #137]	@ zero_extendqisi2
 963 0052 94F88830 		ldrb	r3, [r4, #136]	@ zero_extendqisi2
ARM GAS  C:\Users\linar\AppData\Local\Temp\ccAaFYxm.s 			page 57


 964 0056 1B04     		lsls	r3, r3, #16
 965 0058 43EA0263 		orr	r3, r3, r2, lsl #24
 966 005c 94F88720 		ldrb	r2, [r4, #135]	@ zero_extendqisi2
 967 0060 43EA0223 		orr	r3, r3, r2, lsl #8
 968 0064 94F88620 		ldrb	r2, [r4, #134]	@ zero_extendqisi2
 969 0068 1343     		orrs	r3, r3, r2
 970 006a 23F07F43 		bic	r3, r3, #-16777216
 971 006e 074A     		ldr	r2, .L93+4
 972 0070 9342     		cmp	r3, r2
 973 0072 06D1     		bne	.L91
 974 0074 10BD     		pop	{r4, pc}
 975              	.LVL136:
 976              	.L88:
2182:ff.c          **** 
 977              		.loc 1 2182 0
 978 0076 0320     		movs	r0, #3
 979 0078 10BD     		pop	{r4, pc}
 980              	.LVL137:
 981              	.L89:
2185:ff.c          **** 		return 2;
 982              		.loc 1 2185 0
 983 007a 0220     		movs	r0, #2
 984 007c 10BD     		pop	{r4, pc}
 985              	.LVL138:
 986              	.L90:
2188:ff.c          **** 		return 0;
 987              		.loc 1 2188 0
 988 007e 0020     		movs	r0, #0
 989 0080 10BD     		pop	{r4, pc}
 990              	.LVL139:
 991              	.L91:
2190:ff.c          **** 		return 0;
2191:ff.c          **** 
2192:ff.c          **** 	return 1;
 992              		.loc 1 2192 0
 993 0082 0120     		movs	r0, #1
2193:ff.c          **** }
 994              		.loc 1 2193 0
 995 0084 10BD     		pop	{r4, pc}
 996              	.LVL140:
 997              	.L94:
 998 0086 00BF     		.align	2
 999              	.L93:
 1000 0088 55AAFFFF 		.word	-21931
 1001 008c 46415400 		.word	5521734
 1002              		.cfi_endproc
 1003              	.LFE25:
 1004              		.size	check_fs, .-check_fs
 1005              		.section	.text.validate,"ax",%progbits
 1006              		.align	2
 1007              		.thumb
 1008              		.thumb_func
 1009              		.type	validate, %function
 1010              	validate:
 1011              	.LFB27:
2194:ff.c          **** 
2195:ff.c          **** 
ARM GAS  C:\Users\linar\AppData\Local\Temp\ccAaFYxm.s 			page 58


2196:ff.c          **** 
2197:ff.c          **** 
2198:ff.c          **** /*-----------------------------------------------------------------------*/
2199:ff.c          **** /* Find logical drive and check if the volume is mounted                 */
2200:ff.c          **** /*-----------------------------------------------------------------------*/
2201:ff.c          **** 
2202:ff.c          **** static
2203:ff.c          **** FRESULT find_volume (	/* FR_OK(0): successful, !=0: any error occurred */
2204:ff.c          **** 	FATFS** rfs,		/* Pointer to pointer to the found file system object */
2205:ff.c          **** 	const TCHAR** path,	/* Pointer to pointer to the path name (drive number) */
2206:ff.c          **** 	BYTE wmode			/* !=0: Check write protection for write access */
2207:ff.c          **** )
2208:ff.c          **** {
2209:ff.c          **** 	BYTE fmt, *pt;
2210:ff.c          **** 	int vol;
2211:ff.c          **** 	DSTATUS stat;
2212:ff.c          **** 	DWORD bsect, fasize, tsect, sysect, nclst, szbfat, br[4];
2213:ff.c          **** 	WORD nrsv;
2214:ff.c          **** 	FATFS *fs;
2215:ff.c          **** 	UINT i;
2216:ff.c          **** 
2217:ff.c          **** 
2218:ff.c          **** 	/* Get logical drive number from the path name */
2219:ff.c          **** 	*rfs = 0;
2220:ff.c          **** 	vol = get_ldnumber(path);
2221:ff.c          **** 	if (vol < 0) return FR_INVALID_DRIVE;
2222:ff.c          **** 
2223:ff.c          **** 	/* Check if the file system object is valid or not */
2224:ff.c          **** 	fs = FatFs[vol];					/* Get pointer to the file system object */
2225:ff.c          **** 	if (!fs) return FR_NOT_ENABLED;		/* Is the file system object available? */
2226:ff.c          **** 
2227:ff.c          **** 	ENTER_FF(fs);						/* Lock the volume */
2228:ff.c          **** 	*rfs = fs;							/* Return pointer to the file system object */
2229:ff.c          **** 
2230:ff.c          **** 	if (fs->fs_type) {					/* If the volume has been mounted */
2231:ff.c          **** 		stat = disk_status(fs->drv);
2232:ff.c          **** 		if (!(stat & STA_NOINIT)) {		/* and the physical drive is kept initialized */
2233:ff.c          **** 			if (!_FS_READONLY && wmode && (stat & STA_PROTECT))	/* Check write protection if needed */
2234:ff.c          **** 				return FR_WRITE_PROTECTED;
2235:ff.c          **** 			return FR_OK;				/* The file system object is valid */
2236:ff.c          **** 		}
2237:ff.c          **** 	}
2238:ff.c          **** 
2239:ff.c          **** 	/* The file system object is not valid. */
2240:ff.c          **** 	/* Following code attempts to mount the volume. (analyze BPB and initialize the fs object) */
2241:ff.c          **** 
2242:ff.c          **** 	fs->fs_type = 0;					/* Clear the file system object */
2243:ff.c          **** 	fs->drv = LD2PD(vol);				/* Bind the logical drive and a physical drive */
2244:ff.c          **** 	stat = disk_initialize(fs->drv);	/* Initialize the physical drive */
2245:ff.c          **** 	if (stat & STA_NOINIT)				/* Check if the initialization succeeded */
2246:ff.c          **** 		return FR_NOT_READY;			/* Failed to initialize due to no medium or hard error */
2247:ff.c          **** 	if (!_FS_READONLY && wmode && (stat & STA_PROTECT))	/* Check disk write protection if needed */
2248:ff.c          **** 		return FR_WRITE_PROTECTED;
2249:ff.c          **** #if _MAX_SS != _MIN_SS						/* Get sector size (multiple sector size cfg only) */
2250:ff.c          **** 	if (disk_ioctl(fs->drv, GET_SECTOR_SIZE, &SS(fs)) != RES_OK
2251:ff.c          **** 		|| SS(fs) < _MIN_SS || SS(fs) > _MAX_SS) return FR_DISK_ERR;
2252:ff.c          **** #endif
ARM GAS  C:\Users\linar\AppData\Local\Temp\ccAaFYxm.s 			page 59


2253:ff.c          **** 	/* Find an FAT partition on the drive. Supports only generic partitioning, FDISK and SFD. */
2254:ff.c          **** 	bsect = 0;
2255:ff.c          **** 	fmt = check_fs(fs, bsect);					/* Load sector 0 and check if it is an FAT boot sector as SFD */
2256:ff.c          **** 	if (fmt == 1 || (!fmt && (LD2PT(vol)))) {	/* Not an FAT boot sector or forced partition number */
2257:ff.c          **** 		for (i = 0; i < 4; i++) {			/* Get partition offset */
2258:ff.c          **** 			pt = fs->win + MBR_Table + i * SZ_PTE;
2259:ff.c          **** 			br[i] = pt[4] ? LD_DWORD(&pt[8]) : 0;
2260:ff.c          **** 		}
2261:ff.c          **** 		i = LD2PT(vol);						/* Partition number: 0:auto, 1-4:forced */
2262:ff.c          **** 		if (i) i--;
2263:ff.c          **** 		do {								/* Find an FAT volume */
2264:ff.c          **** 			bsect = br[i];
2265:ff.c          **** 			fmt = bsect ? check_fs(fs, bsect) : 2;	/* Check the partition */
2266:ff.c          **** 		} while (!LD2PT(vol) && fmt && ++i < 4);
2267:ff.c          **** 	}
2268:ff.c          **** 	if (fmt == 3) return FR_DISK_ERR;		/* An error occured in the disk I/O layer */
2269:ff.c          **** 	if (fmt) return FR_NO_FILESYSTEM;		/* No FAT volume is found */
2270:ff.c          **** 
2271:ff.c          **** 	/* An FAT volume is found. Following code initializes the file system object */
2272:ff.c          **** 
2273:ff.c          **** 	if (LD_WORD(fs->win + BPB_BytsPerSec) != SS(fs))	/* (BPB_BytsPerSec must be equal to the physical 
2274:ff.c          **** 		return FR_NO_FILESYSTEM;
2275:ff.c          **** 
2276:ff.c          **** 	fasize = LD_WORD(fs->win + BPB_FATSz16);			/* Number of sectors per FAT */
2277:ff.c          **** 	if (!fasize) fasize = LD_DWORD(fs->win + BPB_FATSz32);
2278:ff.c          **** 	fs->fsize = fasize;
2279:ff.c          **** 
2280:ff.c          **** 	fs->n_fats = fs->win[BPB_NumFATs];					/* Number of FAT copies */
2281:ff.c          **** 	if (fs->n_fats != 1 && fs->n_fats != 2)				/* (Must be 1 or 2) */
2282:ff.c          **** 		return FR_NO_FILESYSTEM;
2283:ff.c          **** 	fasize *= fs->n_fats;								/* Number of sectors for FAT area */
2284:ff.c          **** 
2285:ff.c          **** 	fs->csize = fs->win[BPB_SecPerClus];				/* Number of sectors per cluster */
2286:ff.c          **** 	if (!fs->csize || (fs->csize & (fs->csize - 1)))	/* (Must be power of 2) */
2287:ff.c          **** 		return FR_NO_FILESYSTEM;
2288:ff.c          **** 
2289:ff.c          **** 	fs->n_rootdir = LD_WORD(fs->win + BPB_RootEntCnt);	/* Number of root directory entries */
2290:ff.c          **** 	if (fs->n_rootdir % (SS(fs) / SZ_DIRE))				/* (Must be sector aligned) */
2291:ff.c          **** 		return FR_NO_FILESYSTEM;
2292:ff.c          **** 
2293:ff.c          **** 	tsect = LD_WORD(fs->win + BPB_TotSec16);			/* Number of sectors on the volume */
2294:ff.c          **** 	if (!tsect) tsect = LD_DWORD(fs->win + BPB_TotSec32);
2295:ff.c          **** 
2296:ff.c          **** 	nrsv = LD_WORD(fs->win + BPB_RsvdSecCnt);			/* Number of reserved sectors */
2297:ff.c          **** 	if (!nrsv) return FR_NO_FILESYSTEM;					/* (Must not be 0) */
2298:ff.c          **** 
2299:ff.c          **** 	/* Determine the FAT sub type */
2300:ff.c          **** 	sysect = nrsv + fasize + fs->n_rootdir / (SS(fs) / SZ_DIRE);	/* RSV + FAT + DIR */
2301:ff.c          **** 	if (tsect < sysect) return FR_NO_FILESYSTEM;		/* (Invalid volume size) */
2302:ff.c          **** 	nclst = (tsect - sysect) / fs->csize;				/* Number of clusters */
2303:ff.c          **** 	if (!nclst) return FR_NO_FILESYSTEM;				/* (Invalid volume size) */
2304:ff.c          **** 	fmt = FS_FAT12;
2305:ff.c          **** 	if (nclst >= MIN_FAT16) fmt = FS_FAT16;
2306:ff.c          **** 	if (nclst >= MIN_FAT32) fmt = FS_FAT32;
2307:ff.c          **** 
2308:ff.c          **** 	/* Boundaries and Limits */
2309:ff.c          **** 	fs->n_fatent = nclst + 2;							/* Number of FAT entries */
ARM GAS  C:\Users\linar\AppData\Local\Temp\ccAaFYxm.s 			page 60


2310:ff.c          **** 	fs->volbase = bsect;								/* Volume start sector */
2311:ff.c          **** 	fs->fatbase = bsect + nrsv; 						/* FAT start sector */
2312:ff.c          **** 	fs->database = bsect + sysect;						/* Data start sector */
2313:ff.c          **** 	if (fmt == FS_FAT32) {
2314:ff.c          **** 		if (fs->n_rootdir) return FR_NO_FILESYSTEM;		/* (BPB_RootEntCnt must be 0) */
2315:ff.c          **** 		fs->dirbase = LD_DWORD(fs->win + BPB_RootClus);	/* Root directory start cluster */
2316:ff.c          **** 		szbfat = fs->n_fatent * 4;						/* (Needed FAT size) */
2317:ff.c          **** 	} else {
2318:ff.c          **** 		if (!fs->n_rootdir)	return FR_NO_FILESYSTEM;	/* (BPB_RootEntCnt must not be 0) */
2319:ff.c          **** 		fs->dirbase = fs->fatbase + fasize;				/* Root directory start sector */
2320:ff.c          **** 		szbfat = (fmt == FS_FAT16) ?					/* (Needed FAT size) */
2321:ff.c          **** 			fs->n_fatent * 2 : fs->n_fatent * 3 / 2 + (fs->n_fatent & 1);
2322:ff.c          **** 	}
2323:ff.c          **** 	if (fs->fsize < (szbfat + (SS(fs) - 1)) / SS(fs))	/* (BPB_FATSz must not be less than the size nee
2324:ff.c          **** 		return FR_NO_FILESYSTEM;
2325:ff.c          **** 
2326:ff.c          **** #if !_FS_READONLY
2327:ff.c          **** 	/* Initialize cluster allocation information */
2328:ff.c          **** 	fs->last_clust = fs->free_clust = 0xFFFFFFFF;
2329:ff.c          **** 
2330:ff.c          **** 	/* Get fsinfo if available */
2331:ff.c          **** 	fs->fsi_flag = 0x80;
2332:ff.c          **** #if (_FS_NOFSINFO & 3) != 3
2333:ff.c          **** 	if (fmt == FS_FAT32				/* Enable FSINFO only if FAT32 and BPB_FSInfo == 1 */
2334:ff.c          **** 		&& LD_WORD(fs->win + BPB_FSInfo) == 1
2335:ff.c          **** 		&& move_window(fs, bsect + 1) == FR_OK)
2336:ff.c          **** 	{
2337:ff.c          **** 		fs->fsi_flag = 0;
2338:ff.c          **** 		if (LD_WORD(fs->win + BS_55AA) == 0xAA55	/* Load FSINFO data if available */
2339:ff.c          **** 			&& LD_DWORD(fs->win + FSI_LeadSig) == 0x41615252
2340:ff.c          **** 			&& LD_DWORD(fs->win + FSI_StrucSig) == 0x61417272)
2341:ff.c          **** 		{
2342:ff.c          **** #if (_FS_NOFSINFO & 1) == 0
2343:ff.c          **** 			fs->free_clust = LD_DWORD(fs->win + FSI_Free_Count);
2344:ff.c          **** #endif
2345:ff.c          **** #if (_FS_NOFSINFO & 2) == 0
2346:ff.c          **** 			fs->last_clust = LD_DWORD(fs->win + FSI_Nxt_Free);
2347:ff.c          **** #endif
2348:ff.c          **** 		}
2349:ff.c          **** 	}
2350:ff.c          **** #endif
2351:ff.c          **** #endif
2352:ff.c          **** 	fs->fs_type = fmt;	/* FAT sub-type */
2353:ff.c          **** 	fs->id = ++Fsid;	/* File system mount ID */
2354:ff.c          **** #if _FS_RPATH
2355:ff.c          **** 	fs->cdir = 0;		/* Set current directory to root */
2356:ff.c          **** #endif
2357:ff.c          **** #if _FS_LOCK			/* Clear file lock semaphores */
2358:ff.c          **** 	clear_lock(fs);
2359:ff.c          **** #endif
2360:ff.c          **** 
2361:ff.c          **** 	return FR_OK;
2362:ff.c          **** }
2363:ff.c          **** 
2364:ff.c          **** 
2365:ff.c          **** 
2366:ff.c          **** 
ARM GAS  C:\Users\linar\AppData\Local\Temp\ccAaFYxm.s 			page 61


2367:ff.c          **** /*-----------------------------------------------------------------------*/
2368:ff.c          **** /* Check if the file/directory object is valid or not                    */
2369:ff.c          **** /*-----------------------------------------------------------------------*/
2370:ff.c          **** 
2371:ff.c          **** static
2372:ff.c          **** FRESULT validate (	/* FR_OK(0): The object is valid, !=0: Invalid */
2373:ff.c          **** 	void* obj		/* Pointer to the object FIL/DIR to check validity */
2374:ff.c          **** )
2375:ff.c          **** {
 1012              		.loc 1 2375 0
 1013              		.cfi_startproc
 1014              		@ args = 0, pretend = 0, frame = 0
 1015              		@ frame_needed = 0, uses_anonymous_args = 0
 1016              	.LVL141:
2376:ff.c          **** 	FIL *fil = (FIL*)obj;	/* Assuming offset of .fs and .id in the FIL/DIR structure is identical */
2377:ff.c          **** 
2378:ff.c          **** 
2379:ff.c          **** 	if (!fil || !fil->fs || !fil->fs->fs_type || fil->fs->id != fil->id || (disk_status(fil->fs->drv) 
 1017              		.loc 1 2379 0
 1018 0000 80B1     		cbz	r0, .L97
2375:ff.c          **** 	FIL *fil = (FIL*)obj;	/* Assuming offset of .fs and .id in the FIL/DIR structure is identical */
 1019              		.loc 1 2375 0 discriminator 1
 1020 0002 08B5     		push	{r3, lr}
 1021              		.cfi_def_cfa_offset 8
 1022              		.cfi_offset 3, -8
 1023              		.cfi_offset 14, -4
 1024              		.loc 1 2379 0 discriminator 1
 1025 0004 0368     		ldr	r3, [r0]
 1026 0006 7BB1     		cbz	r3, .L98
 1027              		.loc 1 2379 0 is_stmt 0 discriminator 2
 1028 0008 1978     		ldrb	r1, [r3]	@ zero_extendqisi2
 1029 000a 79B1     		cbz	r1, .L99
 1030              		.loc 1 2379 0 discriminator 3
 1031 000c D988     		ldrh	r1, [r3, #6]
 1032 000e 8288     		ldrh	r2, [r0, #4]
 1033 0010 9142     		cmp	r1, r2
 1034 0012 0DD1     		bne	.L100
 1035              		.loc 1 2379 0 discriminator 4
 1036 0014 5878     		ldrb	r0, [r3, #1]	@ zero_extendqisi2
 1037              	.LVL142:
 1038 0016 FFF7FEFF 		bl	disk_status
 1039              	.LVL143:
 1040 001a 10F0010F 		tst	r0, #1
 1041 001e 09D1     		bne	.L101
2380:ff.c          **** 		return FR_INVALID_OBJECT;
2381:ff.c          **** 
2382:ff.c          **** 	ENTER_FF(fil->fs);		/* Lock file system */
2383:ff.c          **** 
2384:ff.c          **** 	return FR_OK;
 1042              		.loc 1 2384 0 is_stmt 1
 1043 0020 0020     		movs	r0, #0
 1044 0022 08BD     		pop	{r3, pc}
 1045              	.LVL144:
 1046              	.L97:
 1047              		.cfi_def_cfa_offset 0
 1048              		.cfi_restore 3
 1049              		.cfi_restore 14
ARM GAS  C:\Users\linar\AppData\Local\Temp\ccAaFYxm.s 			page 62


2380:ff.c          **** 		return FR_INVALID_OBJECT;
 1050              		.loc 1 2380 0
 1051 0024 0920     		movs	r0, #9
 1052              	.LVL145:
2385:ff.c          **** }
 1053              		.loc 1 2385 0
 1054 0026 7047     		bx	lr
 1055              	.LVL146:
 1056              	.L98:
 1057              		.cfi_def_cfa_offset 8
 1058              		.cfi_offset 3, -8
 1059              		.cfi_offset 14, -4
2380:ff.c          **** 		return FR_INVALID_OBJECT;
 1060              		.loc 1 2380 0
 1061 0028 0920     		movs	r0, #9
 1062              	.LVL147:
 1063 002a 08BD     		pop	{r3, pc}
 1064              	.LVL148:
 1065              	.L99:
 1066 002c 0920     		movs	r0, #9
 1067              	.LVL149:
 1068 002e 08BD     		pop	{r3, pc}
 1069              	.LVL150:
 1070              	.L100:
 1071 0030 0920     		movs	r0, #9
 1072              	.LVL151:
 1073 0032 08BD     		pop	{r3, pc}
 1074              	.L101:
 1075 0034 0920     		movs	r0, #9
 1076              		.loc 1 2385 0
 1077 0036 08BD     		pop	{r3, pc}
 1078              		.cfi_endproc
 1079              	.LFE27:
 1080              		.size	validate, .-validate
 1081              		.section	.text.find_volume,"ax",%progbits
 1082              		.align	2
 1083              		.thumb
 1084              		.thumb_func
 1085              		.type	find_volume, %function
 1086              	find_volume:
 1087              	.LFB26:
2208:ff.c          **** 	BYTE fmt, *pt;
 1088              		.loc 1 2208 0
 1089              		.cfi_startproc
 1090              		@ args = 0, pretend = 0, frame = 16
 1091              		@ frame_needed = 0, uses_anonymous_args = 0
 1092              	.LVL152:
 1093 0000 F0B5     		push	{r4, r5, r6, r7, lr}
 1094              		.cfi_def_cfa_offset 20
 1095              		.cfi_offset 4, -20
 1096              		.cfi_offset 5, -16
 1097              		.cfi_offset 6, -12
 1098              		.cfi_offset 7, -8
 1099              		.cfi_offset 14, -4
 1100 0002 85B0     		sub	sp, sp, #20
 1101              		.cfi_def_cfa_offset 40
 1102 0004 0646     		mov	r6, r0
ARM GAS  C:\Users\linar\AppData\Local\Temp\ccAaFYxm.s 			page 63


 1103 0006 1746     		mov	r7, r2
2219:ff.c          **** 	vol = get_ldnumber(path);
 1104              		.loc 1 2219 0
 1105 0008 0023     		movs	r3, #0
 1106 000a 0360     		str	r3, [r0]
2220:ff.c          **** 	if (vol < 0) return FR_INVALID_DRIVE;
 1107              		.loc 1 2220 0
 1108 000c 0846     		mov	r0, r1
 1109              	.LVL153:
 1110 000e FFF7FEFF 		bl	get_ldnumber
 1111              	.LVL154:
2221:ff.c          **** 
 1112              		.loc 1 2221 0
 1113 0012 051E     		subs	r5, r0, #0
 1114 0014 C0F27E81 		blt	.L121
2224:ff.c          **** 	if (!fs) return FR_NOT_ENABLED;		/* Is the file system object available? */
 1115              		.loc 1 2224 0
 1116 0018 CC4B     		ldr	r3, .L146
 1117 001a 53F82540 		ldr	r4, [r3, r5, lsl #2]
 1118              	.LVL155:
2225:ff.c          **** 
 1119              		.loc 1 2225 0
 1120 001e 002C     		cmp	r4, #0
 1121 0020 00F07A81 		beq	.L122
2228:ff.c          **** 
 1122              		.loc 1 2228 0
 1123 0024 3460     		str	r4, [r6]
2230:ff.c          **** 		stat = disk_status(fs->drv);
 1124              		.loc 1 2230 0
 1125 0026 2378     		ldrb	r3, [r4]	@ zero_extendqisi2
 1126 0028 73B1     		cbz	r3, .L105
2231:ff.c          **** 		if (!(stat & STA_NOINIT)) {		/* and the physical drive is kept initialized */
 1127              		.loc 1 2231 0
 1128 002a 6078     		ldrb	r0, [r4, #1]	@ zero_extendqisi2
 1129              	.LVL156:
 1130 002c FFF7FEFF 		bl	disk_status
 1131              	.LVL157:
2232:ff.c          **** 			if (!_FS_READONLY && wmode && (stat & STA_PROTECT))	/* Check write protection if needed */
 1132              		.loc 1 2232 0
 1133 0030 10F0010F 		tst	r0, #1
 1134 0034 08D1     		bne	.L105
2233:ff.c          **** 				return FR_WRITE_PROTECTED;
 1135              		.loc 1 2233 0
 1136 0036 002F     		cmp	r7, #0
 1137 0038 00F07081 		beq	.L123
2233:ff.c          **** 				return FR_WRITE_PROTECTED;
 1138              		.loc 1 2233 0 is_stmt 0 discriminator 1
 1139 003c 10F0040F 		tst	r0, #4
 1140 0040 40F06E81 		bne	.L124
2235:ff.c          **** 		}
 1141              		.loc 1 2235 0 is_stmt 1
 1142 0044 0020     		movs	r0, #0
 1143              	.LVL158:
 1144 0046 92E1     		b	.L104
 1145              	.L105:
2242:ff.c          **** 	fs->drv = LD2PD(vol);				/* Bind the logical drive and a physical drive */
 1146              		.loc 1 2242 0
ARM GAS  C:\Users\linar\AppData\Local\Temp\ccAaFYxm.s 			page 64


 1147 0048 0023     		movs	r3, #0
 1148 004a 2370     		strb	r3, [r4]
2243:ff.c          **** 	stat = disk_initialize(fs->drv);	/* Initialize the physical drive */
 1149              		.loc 1 2243 0
 1150 004c E8B2     		uxtb	r0, r5
 1151 004e 6070     		strb	r0, [r4, #1]
2244:ff.c          **** 	if (stat & STA_NOINIT)				/* Check if the initialization succeeded */
 1152              		.loc 1 2244 0
 1153 0050 FFF7FEFF 		bl	disk_initialize
 1154              	.LVL159:
2245:ff.c          **** 		return FR_NOT_READY;			/* Failed to initialize due to no medium or hard error */
 1155              		.loc 1 2245 0
 1156 0054 10F0010F 		tst	r0, #1
 1157 0058 40F06481 		bne	.L125
2247:ff.c          **** 		return FR_WRITE_PROTECTED;
 1158              		.loc 1 2247 0
 1159 005c 1FB1     		cbz	r7, .L106
2247:ff.c          **** 		return FR_WRITE_PROTECTED;
 1160              		.loc 1 2247 0 is_stmt 0 discriminator 1
 1161 005e 10F0040F 		tst	r0, #4
 1162 0062 40F06181 		bne	.L126
 1163              	.L106:
 1164              	.LVL160:
2255:ff.c          **** 	if (fmt == 1 || (!fmt && (LD2PT(vol)))) {	/* Not an FAT boot sector or forced partition number */
 1165              		.loc 1 2255 0 is_stmt 1
 1166 0066 0021     		movs	r1, #0
 1167 0068 2046     		mov	r0, r4
 1168              	.LVL161:
 1169 006a FFF7FEFF 		bl	check_fs
 1170              	.LVL162:
2256:ff.c          **** 		for (i = 0; i < 4; i++) {			/* Get partition offset */
 1171              		.loc 1 2256 0
 1172 006e 0128     		cmp	r0, #1
 1173 0070 1CD0     		beq	.L127
2254:ff.c          **** 	fmt = check_fs(fs, bsect);					/* Load sector 0 and check if it is an FAT boot sector as SFD */
 1174              		.loc 1 2254 0
 1175 0072 0026     		movs	r6, #0
 1176              	.LVL163:
 1177 0074 2EE0     		b	.L108
 1178              	.LVL164:
 1179              	.L110:
2258:ff.c          **** 			br[i] = pt[4] ? LD_DWORD(&pt[8]) : 0;
 1180              		.loc 1 2258 0
 1181 0076 04F13403 		add	r3, r4, #52
 1182 007a 0A01     		lsls	r2, r1, #4
 1183 007c 02F5DF72 		add	r2, r2, #446
 1184 0080 1344     		add	r3, r3, r2
 1185              	.LVL165:
2259:ff.c          **** 		}
 1186              		.loc 1 2259 0
 1187 0082 1A79     		ldrb	r2, [r3, #4]	@ zero_extendqisi2
 1188 0084 52B1     		cbz	r2, .L128
2259:ff.c          **** 		}
 1189              		.loc 1 2259 0 is_stmt 0 discriminator 1
 1190 0086 D87A     		ldrb	r0, [r3, #11]	@ zero_extendqisi2
 1191 0088 9A7A     		ldrb	r2, [r3, #10]	@ zero_extendqisi2
 1192 008a 1204     		lsls	r2, r2, #16
ARM GAS  C:\Users\linar\AppData\Local\Temp\ccAaFYxm.s 			page 65


 1193 008c 42EA0062 		orr	r2, r2, r0, lsl #24
 1194 0090 587A     		ldrb	r0, [r3, #9]	@ zero_extendqisi2
 1195 0092 42EA0022 		orr	r2, r2, r0, lsl #8
 1196 0096 1B7A     		ldrb	r3, [r3, #8]	@ zero_extendqisi2
 1197              	.LVL166:
 1198 0098 1A43     		orrs	r2, r2, r3
 1199 009a 00E0     		b	.L109
 1200              	.LVL167:
 1201              	.L128:
2259:ff.c          **** 		}
 1202              		.loc 1 2259 0
 1203 009c 0022     		movs	r2, #0
 1204              	.LVL168:
 1205              	.L109:
2259:ff.c          **** 		}
 1206              		.loc 1 2259 0 discriminator 4
 1207 009e 04AB     		add	r3, sp, #16
 1208 00a0 03EB8103 		add	r3, r3, r1, lsl #2
 1209 00a4 43F8102C 		str	r2, [r3, #-16]
2257:ff.c          **** 			pt = fs->win + MBR_Table + i * SZ_PTE;
 1210              		.loc 1 2257 0 is_stmt 1 discriminator 4
 1211 00a8 0131     		adds	r1, r1, #1
 1212              	.LVL169:
 1213 00aa 00E0     		b	.L107
 1214              	.LVL170:
 1215              	.L127:
 1216 00ac 0021     		movs	r1, #0
 1217              	.LVL171:
 1218              	.L107:
2257:ff.c          **** 			pt = fs->win + MBR_Table + i * SZ_PTE;
 1219              		.loc 1 2257 0 is_stmt 0 discriminator 2
 1220 00ae 0329     		cmp	r1, #3
 1221 00b0 E1D9     		bls	.L110
 1222 00b2 0025     		movs	r5, #0
 1223              	.LVL172:
 1224              	.L112:
2264:ff.c          **** 			fmt = bsect ? check_fs(fs, bsect) : 2;	/* Check the partition */
 1225              		.loc 1 2264 0 is_stmt 1
 1226 00b4 04AB     		add	r3, sp, #16
 1227 00b6 03EB8503 		add	r3, r3, r5, lsl #2
 1228 00ba 53F8106C 		ldr	r6, [r3, #-16]
 1229              	.LVL173:
2265:ff.c          **** 		} while (!LD2PT(vol) && fmt && ++i < 4);
 1230              		.loc 1 2265 0
 1231 00be 26B1     		cbz	r6, .L129
2265:ff.c          **** 		} while (!LD2PT(vol) && fmt && ++i < 4);
 1232              		.loc 1 2265 0 is_stmt 0 discriminator 1
 1233 00c0 3146     		mov	r1, r6
 1234 00c2 2046     		mov	r0, r4
 1235 00c4 FFF7FEFF 		bl	check_fs
 1236              	.LVL174:
 1237 00c8 00E0     		b	.L111
 1238              	.L129:
2265:ff.c          **** 		} while (!LD2PT(vol) && fmt && ++i < 4);
 1239              		.loc 1 2265 0
 1240 00ca 0220     		movs	r0, #2
 1241              	.L111:
ARM GAS  C:\Users\linar\AppData\Local\Temp\ccAaFYxm.s 			page 66


 1242              	.LVL175:
2266:ff.c          **** 	}
 1243              		.loc 1 2266 0 is_stmt 1 discriminator 4
 1244 00cc 10B1     		cbz	r0, .L108
2266:ff.c          **** 	}
 1245              		.loc 1 2266 0 is_stmt 0 discriminator 1
 1246 00ce 0135     		adds	r5, r5, #1
 1247              	.LVL176:
 1248 00d0 032D     		cmp	r5, #3
 1249 00d2 EFD9     		bls	.L112
 1250              	.LVL177:
 1251              	.L108:
2268:ff.c          **** 	if (fmt) return FR_NO_FILESYSTEM;		/* No FAT volume is found */
 1252              		.loc 1 2268 0 is_stmt 1
 1253 00d4 0328     		cmp	r0, #3
 1254 00d6 00F02981 		beq	.L130
2269:ff.c          **** 
 1255              		.loc 1 2269 0
 1256 00da 0028     		cmp	r0, #0
 1257 00dc 40F02881 		bne	.L131
2273:ff.c          **** 		return FR_NO_FILESYSTEM;
 1258              		.loc 1 2273 0
 1259 00e0 94F84020 		ldrb	r2, [r4, #64]	@ zero_extendqisi2
 1260 00e4 94F83F30 		ldrb	r3, [r4, #63]	@ zero_extendqisi2
 1261 00e8 43EA0223 		orr	r3, r3, r2, lsl #8
 1262 00ec 1BB2     		sxth	r3, r3
 1263 00ee B3F5007F 		cmp	r3, #512
 1264 00f2 40F01F81 		bne	.L132
2276:ff.c          **** 	if (!fasize) fasize = LD_DWORD(fs->win + BPB_FATSz32);
 1265              		.loc 1 2276 0
 1266 00f6 94F84B10 		ldrb	r1, [r4, #75]	@ zero_extendqisi2
 1267 00fa 94F84A30 		ldrb	r3, [r4, #74]	@ zero_extendqisi2
 1268              	.LVL178:
2277:ff.c          **** 	fs->fsize = fasize;
 1269              		.loc 1 2277 0
 1270 00fe 53EA0121 		orrs	r1, r3, r1, lsl #8
 1271              	.LVL179:
 1272 0102 0DD1     		bne	.L113
2277:ff.c          **** 	fs->fsize = fasize;
 1273              		.loc 1 2277 0 is_stmt 0 discriminator 1
 1274 0104 94F85B20 		ldrb	r2, [r4, #91]	@ zero_extendqisi2
 1275 0108 94F85A30 		ldrb	r3, [r4, #90]	@ zero_extendqisi2
 1276 010c 1B04     		lsls	r3, r3, #16
 1277 010e 43EA0263 		orr	r3, r3, r2, lsl #24
 1278 0112 94F85910 		ldrb	r1, [r4, #89]	@ zero_extendqisi2
 1279              	.LVL180:
 1280 0116 43EA0123 		orr	r3, r3, r1, lsl #8
 1281 011a 94F85810 		ldrb	r1, [r4, #88]	@ zero_extendqisi2
 1282 011e 1943     		orrs	r1, r1, r3
 1283              	.LVL181:
 1284              	.L113:
2278:ff.c          **** 
 1285              		.loc 1 2278 0 is_stmt 1
 1286 0120 E161     		str	r1, [r4, #28]
2280:ff.c          **** 	if (fs->n_fats != 1 && fs->n_fats != 2)				/* (Must be 1 or 2) */
 1287              		.loc 1 2280 0
 1288 0122 94F84420 		ldrb	r2, [r4, #68]	@ zero_extendqisi2
ARM GAS  C:\Users\linar\AppData\Local\Temp\ccAaFYxm.s 			page 67


 1289 0126 E270     		strb	r2, [r4, #3]
2281:ff.c          **** 		return FR_NO_FILESYSTEM;
 1290              		.loc 1 2281 0
 1291 0128 531E     		subs	r3, r2, #1
 1292 012a DBB2     		uxtb	r3, r3
 1293 012c 012B     		cmp	r3, #1
 1294 012e 00F20381 		bhi	.L133
2283:ff.c          **** 
 1295              		.loc 1 2283 0
 1296 0132 01FB02F7 		mul	r7, r1, r2
 1297              	.LVL182:
2285:ff.c          **** 	if (!fs->csize || (fs->csize & (fs->csize - 1)))	/* (Must be power of 2) */
 1298              		.loc 1 2285 0
 1299 0136 94F84130 		ldrb	r3, [r4, #65]	@ zero_extendqisi2
 1300 013a A370     		strb	r3, [r4, #2]
2286:ff.c          **** 		return FR_NO_FILESYSTEM;
 1301              		.loc 1 2286 0
 1302 013c 002B     		cmp	r3, #0
 1303 013e 00F0FD80 		beq	.L134
2286:ff.c          **** 		return FR_NO_FILESYSTEM;
 1304              		.loc 1 2286 0 is_stmt 0 discriminator 1
 1305 0142 5A1E     		subs	r2, r3, #1
 1306 0144 1342     		tst	r3, r2
 1307 0146 40F0FB80 		bne	.L135
2289:ff.c          **** 	if (fs->n_rootdir % (SS(fs) / SZ_DIRE))				/* (Must be sector aligned) */
 1308              		.loc 1 2289 0 is_stmt 1
 1309 014a 94F846E0 		ldrb	lr, [r4, #70]	@ zero_extendqisi2
 1310 014e 94F84520 		ldrb	r2, [r4, #69]	@ zero_extendqisi2
 1311 0152 42EA0E2E 		orr	lr, r2, lr, lsl #8
 1312 0156 A4F808E0 		strh	lr, [r4, #8]	@ movhi
2290:ff.c          **** 		return FR_NO_FILESYSTEM;
 1313              		.loc 1 2290 0
 1314 015a 1EF00F0F 		tst	lr, #15
 1315 015e 40F0F180 		bne	.L136
2293:ff.c          **** 	if (!tsect) tsect = LD_DWORD(fs->win + BPB_TotSec32);
 1316              		.loc 1 2293 0
 1317 0162 94F84800 		ldrb	r0, [r4, #72]	@ zero_extendqisi2
 1318              	.LVL183:
 1319 0166 94F84720 		ldrb	r2, [r4, #71]	@ zero_extendqisi2
 1320              	.LVL184:
2294:ff.c          **** 
 1321              		.loc 1 2294 0
 1322 016a 52EA0022 		orrs	r2, r2, r0, lsl #8
 1323              	.LVL185:
 1324 016e 0DD1     		bne	.L114
2294:ff.c          **** 
 1325              		.loc 1 2294 0 is_stmt 0 discriminator 1
 1326 0170 94F85700 		ldrb	r0, [r4, #87]	@ zero_extendqisi2
 1327 0174 94F85620 		ldrb	r2, [r4, #86]	@ zero_extendqisi2
 1328              	.LVL186:
 1329 0178 1204     		lsls	r2, r2, #16
 1330 017a 42EA0062 		orr	r2, r2, r0, lsl #24
 1331 017e 94F85500 		ldrb	r0, [r4, #85]	@ zero_extendqisi2
 1332 0182 42EA0020 		orr	r0, r2, r0, lsl #8
 1333 0186 94F85420 		ldrb	r2, [r4, #84]	@ zero_extendqisi2
 1334 018a 0243     		orrs	r2, r2, r0
 1335              	.LVL187:
ARM GAS  C:\Users\linar\AppData\Local\Temp\ccAaFYxm.s 			page 68


 1336              	.L114:
2296:ff.c          **** 	if (!nrsv) return FR_NO_FILESYSTEM;					/* (Must not be 0) */
 1337              		.loc 1 2296 0 is_stmt 1
 1338 018c 94F84350 		ldrb	r5, [r4, #67]	@ zero_extendqisi2
 1339 0190 94F84200 		ldrb	r0, [r4, #66]	@ zero_extendqisi2
 1340              	.LVL188:
2297:ff.c          **** 
 1341              		.loc 1 2297 0
 1342 0194 50EA0520 		orrs	r0, r0, r5, lsl #8
 1343              	.LVL189:
 1344 0198 00F0D680 		beq	.L137
2300:ff.c          **** 	if (tsect < sysect) return FR_NO_FILESYSTEM;		/* (Invalid volume size) */
 1345              		.loc 1 2300 0
 1346 019c 07EB000C 		add	ip, r7, r0
 1347 01a0 0CEB1E1C 		add	ip, ip, lr, lsr #4
 1348              	.LVL190:
2301:ff.c          **** 	nclst = (tsect - sysect) / fs->csize;				/* Number of clusters */
 1349              		.loc 1 2301 0
 1350 01a4 6245     		cmp	r2, ip
 1351 01a6 C0F0D980 		bcc	.L138
2302:ff.c          **** 	if (!nclst) return FR_NO_FILESYSTEM;				/* (Invalid volume size) */
 1352              		.loc 1 2302 0
 1353 01aa CCEB0202 		rsb	r2, ip, r2
 1354              	.LVL191:
 1355 01ae B2FBF3F3 		udiv	r3, r2, r3
 1356              	.LVL192:
2303:ff.c          **** 	fmt = FS_FAT12;
 1357              		.loc 1 2303 0
 1358 01b2 002B     		cmp	r3, #0
 1359 01b4 00F0D480 		beq	.L139
 1360              	.LVL193:
2305:ff.c          **** 	if (nclst >= MIN_FAT32) fmt = FS_FAT32;
 1361              		.loc 1 2305 0
 1362 01b8 40F6F572 		movw	r2, #4085
 1363 01bc 9342     		cmp	r3, r2
 1364 01be 01D8     		bhi	.L140
2304:ff.c          **** 	if (nclst >= MIN_FAT16) fmt = FS_FAT16;
 1365              		.loc 1 2304 0
 1366 01c0 0125     		movs	r5, #1
 1367              	.LVL194:
 1368 01c2 00E0     		b	.L115
 1369              	.LVL195:
 1370              	.L140:
2305:ff.c          **** 	if (nclst >= MIN_FAT32) fmt = FS_FAT32;
 1371              		.loc 1 2305 0
 1372 01c4 0225     		movs	r5, #2
 1373              	.LVL196:
 1374              	.L115:
2306:ff.c          **** 
 1375              		.loc 1 2306 0
 1376 01c6 4FF6F572 		movw	r2, #65525
 1377 01ca 9342     		cmp	r3, r2
 1378 01cc 00D9     		bls	.L116
 1379 01ce 0325     		movs	r5, #3
 1380              	.LVL197:
 1381              	.L116:
2309:ff.c          **** 	fs->volbase = bsect;								/* Volume start sector */
ARM GAS  C:\Users\linar\AppData\Local\Temp\ccAaFYxm.s 			page 69


 1382              		.loc 1 2309 0
 1383 01d0 0233     		adds	r3, r3, #2
 1384              	.LVL198:
 1385 01d2 A361     		str	r3, [r4, #24]
2310:ff.c          **** 	fs->fatbase = bsect + nrsv; 						/* FAT start sector */
 1386              		.loc 1 2310 0
 1387 01d4 2662     		str	r6, [r4, #32]
2311:ff.c          **** 	fs->database = bsect + sysect;						/* Data start sector */
 1388              		.loc 1 2311 0
 1389 01d6 3218     		adds	r2, r6, r0
 1390 01d8 6262     		str	r2, [r4, #36]
2312:ff.c          **** 	if (fmt == FS_FAT32) {
 1391              		.loc 1 2312 0
 1392 01da 06EB0C00 		add	r0, r6, ip
 1393 01de E062     		str	r0, [r4, #44]
2313:ff.c          **** 		if (fs->n_rootdir) return FR_NO_FILESYSTEM;		/* (BPB_RootEntCnt must be 0) */
 1394              		.loc 1 2313 0
 1395 01e0 032D     		cmp	r5, #3
 1396 01e2 14D1     		bne	.L117
2314:ff.c          **** 		fs->dirbase = LD_DWORD(fs->win + BPB_RootClus);	/* Root directory start cluster */
 1397              		.loc 1 2314 0
 1398 01e4 BEF1000F 		cmp	lr, #0
 1399 01e8 40F0BC80 		bne	.L142
2315:ff.c          **** 		szbfat = fs->n_fatent * 4;						/* (Needed FAT size) */
 1400              		.loc 1 2315 0
 1401 01ec 94F86300 		ldrb	r0, [r4, #99]	@ zero_extendqisi2
 1402 01f0 94F86220 		ldrb	r2, [r4, #98]	@ zero_extendqisi2
 1403 01f4 1204     		lsls	r2, r2, #16
 1404 01f6 42EA0062 		orr	r2, r2, r0, lsl #24
 1405 01fa 94F86100 		ldrb	r0, [r4, #97]	@ zero_extendqisi2
 1406 01fe 42EA0022 		orr	r2, r2, r0, lsl #8
 1407 0202 94F86000 		ldrb	r0, [r4, #96]	@ zero_extendqisi2
 1408 0206 0243     		orrs	r2, r2, r0
 1409 0208 A262     		str	r2, [r4, #40]
2316:ff.c          **** 	} else {
 1410              		.loc 1 2316 0
 1411 020a 9B00     		lsls	r3, r3, #2
 1412              	.LVL199:
 1413 020c 0FE0     		b	.L118
 1414              	.LVL200:
 1415              	.L117:
2318:ff.c          **** 		fs->dirbase = fs->fatbase + fasize;				/* Root directory start sector */
 1416              		.loc 1 2318 0
 1417 020e BEF1000F 		cmp	lr, #0
 1418 0212 00F0A980 		beq	.L143
2319:ff.c          **** 		szbfat = (fmt == FS_FAT16) ?					/* (Needed FAT size) */
 1419              		.loc 1 2319 0
 1420 0216 3A44     		add	r2, r2, r7
 1421 0218 A262     		str	r2, [r4, #40]
2321:ff.c          **** 	}
 1422              		.loc 1 2321 0
 1423 021a 022D     		cmp	r5, #2
 1424 021c 01D1     		bne	.L119
2321:ff.c          **** 	}
 1425              		.loc 1 2321 0 is_stmt 0 discriminator 1
 1426 021e 5B00     		lsls	r3, r3, #1
 1427              	.LVL201:
ARM GAS  C:\Users\linar\AppData\Local\Temp\ccAaFYxm.s 			page 70


 1428 0220 05E0     		b	.L118
 1429              	.LVL202:
 1430              	.L119:
2321:ff.c          **** 	}
 1431              		.loc 1 2321 0 discriminator 2
 1432 0222 03EB4302 		add	r2, r3, r3, lsl #1
 1433 0226 03F00103 		and	r3, r3, #1
 1434              	.LVL203:
 1435 022a 03EB5203 		add	r3, r3, r2, lsr #1
 1436              	.L118:
 1437              	.LVL204:
2323:ff.c          **** 		return FR_NO_FILESYSTEM;
 1438              		.loc 1 2323 0 is_stmt 1
 1439 022e 03F2FF13 		addw	r3, r3, #511
 1440              	.LVL205:
 1441 0232 B1EB532F 		cmp	r1, r3, lsr #9
 1442 0236 C0F09980 		bcc	.L144
2328:ff.c          **** 
 1443              		.loc 1 2328 0
 1444 023a 4FF0FF33 		mov	r3, #-1
 1445              	.LVL206:
 1446 023e 2361     		str	r3, [r4, #16]
 1447 0240 E360     		str	r3, [r4, #12]
2331:ff.c          **** #if (_FS_NOFSINFO & 3) != 3
 1448              		.loc 1 2331 0
 1449 0242 8023     		movs	r3, #128
 1450 0244 6371     		strb	r3, [r4, #5]
2333:ff.c          **** 		&& LD_WORD(fs->win + BPB_FSInfo) == 1
 1451              		.loc 1 2333 0
 1452 0246 032D     		cmp	r5, #3
 1453 0248 5AD1     		bne	.L120
2334:ff.c          **** 		&& move_window(fs, bsect + 1) == FR_OK)
 1454              		.loc 1 2334 0
 1455 024a 94F86520 		ldrb	r2, [r4, #101]	@ zero_extendqisi2
 1456 024e 94F86430 		ldrb	r3, [r4, #100]	@ zero_extendqisi2
 1457 0252 43EA0223 		orr	r3, r3, r2, lsl #8
 1458 0256 1BB2     		sxth	r3, r3
 1459 0258 012B     		cmp	r3, #1
 1460 025a 51D1     		bne	.L120
2335:ff.c          **** 	{
 1461              		.loc 1 2335 0
 1462 025c 711C     		adds	r1, r6, #1
 1463 025e 2046     		mov	r0, r4
 1464 0260 FFF7FEFF 		bl	move_window
 1465              	.LVL207:
 1466 0264 0028     		cmp	r0, #0
 1467 0266 4BD1     		bne	.L120
2337:ff.c          **** 		if (LD_WORD(fs->win + BS_55AA) == 0xAA55	/* Load FSINFO data if available */
 1468              		.loc 1 2337 0
 1469 0268 0023     		movs	r3, #0
 1470 026a 6371     		strb	r3, [r4, #5]
2338:ff.c          **** 			&& LD_DWORD(fs->win + FSI_LeadSig) == 0x41615252
 1471              		.loc 1 2338 0
 1472 026c 94F83322 		ldrb	r2, [r4, #563]	@ zero_extendqisi2
 1473 0270 94F83232 		ldrb	r3, [r4, #562]	@ zero_extendqisi2
 1474 0274 43EA0223 		orr	r3, r3, r2, lsl #8
 1475 0278 1BB2     		sxth	r3, r3
ARM GAS  C:\Users\linar\AppData\Local\Temp\ccAaFYxm.s 			page 71


 1476 027a 354A     		ldr	r2, .L146+4
 1477 027c 9342     		cmp	r3, r2
 1478 027e 3FD1     		bne	.L120
2339:ff.c          **** 			&& LD_DWORD(fs->win + FSI_StrucSig) == 0x61417272)
 1479              		.loc 1 2339 0
 1480 0280 94F83720 		ldrb	r2, [r4, #55]	@ zero_extendqisi2
 1481 0284 94F83630 		ldrb	r3, [r4, #54]	@ zero_extendqisi2
 1482 0288 1B04     		lsls	r3, r3, #16
 1483 028a 43EA0263 		orr	r3, r3, r2, lsl #24
 1484 028e 94F83520 		ldrb	r2, [r4, #53]	@ zero_extendqisi2
 1485 0292 43EA0223 		orr	r3, r3, r2, lsl #8
 1486 0296 94F83420 		ldrb	r2, [r4, #52]	@ zero_extendqisi2
 1487 029a 1343     		orrs	r3, r3, r2
 1488 029c 2D4A     		ldr	r2, .L146+8
 1489 029e 9342     		cmp	r3, r2
 1490 02a0 2ED1     		bne	.L120
2340:ff.c          **** 		{
 1491              		.loc 1 2340 0
 1492 02a2 94F81B22 		ldrb	r2, [r4, #539]	@ zero_extendqisi2
 1493 02a6 94F81A32 		ldrb	r3, [r4, #538]	@ zero_extendqisi2
 1494 02aa 1B04     		lsls	r3, r3, #16
 1495 02ac 43EA0263 		orr	r3, r3, r2, lsl #24
 1496 02b0 94F81922 		ldrb	r2, [r4, #537]	@ zero_extendqisi2
 1497 02b4 43EA0223 		orr	r3, r3, r2, lsl #8
 1498 02b8 94F81822 		ldrb	r2, [r4, #536]	@ zero_extendqisi2
 1499 02bc 1343     		orrs	r3, r3, r2
 1500 02be 264A     		ldr	r2, .L146+12
 1501 02c0 9342     		cmp	r3, r2
 1502 02c2 1DD1     		bne	.L120
2343:ff.c          **** #endif
 1503              		.loc 1 2343 0
 1504 02c4 94F81F22 		ldrb	r2, [r4, #543]	@ zero_extendqisi2
 1505 02c8 94F81E32 		ldrb	r3, [r4, #542]	@ zero_extendqisi2
 1506 02cc 1B04     		lsls	r3, r3, #16
 1507 02ce 43EA0263 		orr	r3, r3, r2, lsl #24
 1508 02d2 94F81D22 		ldrb	r2, [r4, #541]	@ zero_extendqisi2
 1509 02d6 43EA0223 		orr	r3, r3, r2, lsl #8
 1510 02da 94F81C22 		ldrb	r2, [r4, #540]	@ zero_extendqisi2
 1511 02de 1343     		orrs	r3, r3, r2
 1512 02e0 2361     		str	r3, [r4, #16]
2346:ff.c          **** #endif
 1513              		.loc 1 2346 0
 1514 02e2 94F82322 		ldrb	r2, [r4, #547]	@ zero_extendqisi2
 1515 02e6 94F82232 		ldrb	r3, [r4, #546]	@ zero_extendqisi2
 1516 02ea 1B04     		lsls	r3, r3, #16
 1517 02ec 43EA0263 		orr	r3, r3, r2, lsl #24
 1518 02f0 94F82122 		ldrb	r2, [r4, #545]	@ zero_extendqisi2
 1519 02f4 43EA0223 		orr	r3, r3, r2, lsl #8
 1520 02f8 94F82022 		ldrb	r2, [r4, #544]	@ zero_extendqisi2
 1521 02fc 1343     		orrs	r3, r3, r2
 1522 02fe E360     		str	r3, [r4, #12]
 1523              	.L120:
2352:ff.c          **** 	fs->id = ++Fsid;	/* File system mount ID */
 1524              		.loc 1 2352 0
 1525 0300 2570     		strb	r5, [r4]
2353:ff.c          **** #if _FS_RPATH
 1526              		.loc 1 2353 0
ARM GAS  C:\Users\linar\AppData\Local\Temp\ccAaFYxm.s 			page 72


 1527 0302 124A     		ldr	r2, .L146
 1528 0304 9388     		ldrh	r3, [r2, #4]
 1529 0306 0133     		adds	r3, r3, #1
 1530 0308 9BB2     		uxth	r3, r3
 1531 030a 9380     		strh	r3, [r2, #4]	@ movhi
 1532 030c E380     		strh	r3, [r4, #6]	@ movhi
2355:ff.c          **** #endif
 1533              		.loc 1 2355 0
 1534 030e 0020     		movs	r0, #0
 1535 0310 6061     		str	r0, [r4, #20]
2361:ff.c          **** }
 1536              		.loc 1 2361 0
 1537 0312 2CE0     		b	.L104
 1538              	.LVL208:
 1539              	.L121:
2221:ff.c          **** 
 1540              		.loc 1 2221 0
 1541 0314 0B20     		movs	r0, #11
 1542              	.LVL209:
 1543 0316 2AE0     		b	.L104
 1544              	.LVL210:
 1545              	.L122:
2225:ff.c          **** 
 1546              		.loc 1 2225 0
 1547 0318 0C20     		movs	r0, #12
 1548              	.LVL211:
 1549 031a 28E0     		b	.L104
 1550              	.LVL212:
 1551              	.L123:
2235:ff.c          **** 		}
 1552              		.loc 1 2235 0
 1553 031c 0020     		movs	r0, #0
 1554              	.LVL213:
 1555 031e 26E0     		b	.L104
 1556              	.LVL214:
 1557              	.L124:
2234:ff.c          **** 			return FR_OK;				/* The file system object is valid */
 1558              		.loc 1 2234 0
 1559 0320 0A20     		movs	r0, #10
 1560              	.LVL215:
 1561 0322 24E0     		b	.L104
 1562              	.LVL216:
 1563              	.L125:
2246:ff.c          **** 	if (!_FS_READONLY && wmode && (stat & STA_PROTECT))	/* Check disk write protection if needed */
 1564              		.loc 1 2246 0
 1565 0324 0320     		movs	r0, #3
 1566              	.LVL217:
 1567 0326 22E0     		b	.L104
 1568              	.LVL218:
 1569              	.L126:
2248:ff.c          **** #if _MAX_SS != _MIN_SS						/* Get sector size (multiple sector size cfg only) */
 1570              		.loc 1 2248 0
 1571 0328 0A20     		movs	r0, #10
 1572              	.LVL219:
 1573 032a 20E0     		b	.L104
 1574              	.LVL220:
 1575              	.L130:
ARM GAS  C:\Users\linar\AppData\Local\Temp\ccAaFYxm.s 			page 73


2268:ff.c          **** 	if (fmt) return FR_NO_FILESYSTEM;		/* No FAT volume is found */
 1576              		.loc 1 2268 0
 1577 032c 0120     		movs	r0, #1
 1578              	.LVL221:
 1579 032e 1EE0     		b	.L104
 1580              	.LVL222:
 1581              	.L131:
2269:ff.c          **** 
 1582              		.loc 1 2269 0
 1583 0330 0D20     		movs	r0, #13
 1584              	.LVL223:
 1585 0332 1CE0     		b	.L104
 1586              	.LVL224:
 1587              	.L132:
2274:ff.c          **** 
 1588              		.loc 1 2274 0
 1589 0334 0D20     		movs	r0, #13
 1590              	.LVL225:
 1591 0336 1AE0     		b	.L104
 1592              	.LVL226:
 1593              	.L133:
2282:ff.c          **** 	fasize *= fs->n_fats;								/* Number of sectors for FAT area */
 1594              		.loc 1 2282 0
 1595 0338 0D20     		movs	r0, #13
 1596              	.LVL227:
 1597 033a 18E0     		b	.L104
 1598              	.LVL228:
 1599              	.L134:
2287:ff.c          **** 
 1600              		.loc 1 2287 0
 1601 033c 0D20     		movs	r0, #13
 1602              	.LVL229:
 1603 033e 16E0     		b	.L104
 1604              	.LVL230:
 1605              	.L135:
 1606 0340 0D20     		movs	r0, #13
 1607              	.LVL231:
 1608 0342 14E0     		b	.L104
 1609              	.LVL232:
 1610              	.L136:
2291:ff.c          **** 
 1611              		.loc 1 2291 0
 1612 0344 0D20     		movs	r0, #13
 1613              	.LVL233:
 1614 0346 12E0     		b	.L104
 1615              	.LVL234:
 1616              	.L137:
2297:ff.c          **** 
 1617              		.loc 1 2297 0
 1618 0348 0D20     		movs	r0, #13
 1619 034a 10E0     		b	.L104
 1620              	.L147:
 1621              		.align	2
 1622              	.L146:
 1623 034c 00000000 		.word	.LANCHOR0
 1624 0350 55AAFFFF 		.word	-21931
 1625 0354 52526141 		.word	1096897106
ARM GAS  C:\Users\linar\AppData\Local\Temp\ccAaFYxm.s 			page 74


 1626 0358 72724161 		.word	1631679090
 1627              	.LVL235:
 1628              	.L138:
2301:ff.c          **** 	nclst = (tsect - sysect) / fs->csize;				/* Number of clusters */
 1629              		.loc 1 2301 0
 1630 035c 0D20     		movs	r0, #13
 1631 035e 06E0     		b	.L104
 1632              	.LVL236:
 1633              	.L139:
2303:ff.c          **** 	fmt = FS_FAT12;
 1634              		.loc 1 2303 0
 1635 0360 0D20     		movs	r0, #13
 1636 0362 04E0     		b	.L104
 1637              	.LVL237:
 1638              	.L142:
2314:ff.c          **** 		fs->dirbase = LD_DWORD(fs->win + BPB_RootClus);	/* Root directory start cluster */
 1639              		.loc 1 2314 0
 1640 0364 0D20     		movs	r0, #13
 1641 0366 02E0     		b	.L104
 1642              	.L143:
2318:ff.c          **** 		fs->dirbase = fs->fatbase + fasize;				/* Root directory start sector */
 1643              		.loc 1 2318 0
 1644 0368 0D20     		movs	r0, #13
 1645 036a 00E0     		b	.L104
 1646              	.LVL238:
 1647              	.L144:
2324:ff.c          **** 
 1648              		.loc 1 2324 0
 1649 036c 0D20     		movs	r0, #13
 1650              	.LVL239:
 1651              	.L104:
2362:ff.c          **** 
 1652              		.loc 1 2362 0
 1653 036e 05B0     		add	sp, sp, #20
 1654              		.cfi_def_cfa_offset 20
 1655              		@ sp needed
 1656 0370 F0BD     		pop	{r4, r5, r6, r7, pc}
 1657              		.cfi_endproc
 1658              	.LFE26:
 1659              		.size	find_volume, .-find_volume
 1660 0372 00BF     		.section	.text.sync_fs,"ax",%progbits
 1661              		.align	2
 1662              		.thumb
 1663              		.thumb_func
 1664              		.type	sync_fs, %function
 1665              	sync_fs:
 1666              	.LFB6:
 763:ff.c          **** 	FRESULT res;
 1667              		.loc 1 763 0
 1668              		.cfi_startproc
 1669              		@ args = 0, pretend = 0, frame = 0
 1670              		@ frame_needed = 0, uses_anonymous_args = 0
 1671              	.LVL240:
 1672 0000 70B5     		push	{r4, r5, r6, lr}
 1673              		.cfi_def_cfa_offset 16
 1674              		.cfi_offset 4, -16
 1675              		.cfi_offset 5, -12
ARM GAS  C:\Users\linar\AppData\Local\Temp\ccAaFYxm.s 			page 75


 1676              		.cfi_offset 6, -8
 1677              		.cfi_offset 14, -4
 1678 0002 0446     		mov	r4, r0
 767:ff.c          **** 	if (res == FR_OK) {
 1679              		.loc 1 767 0
 1680 0004 FFF7FEFF 		bl	sync_window
 1681              	.LVL241:
 768:ff.c          **** 		/* Update FSInfo sector if needed */
 1682              		.loc 1 768 0
 1683 0008 0546     		mov	r5, r0
 1684 000a 0028     		cmp	r0, #0
 1685 000c 54D1     		bne	.L149
 770:ff.c          **** 			/* Create FSInfo structure */
 1686              		.loc 1 770 0
 1687 000e 2378     		ldrb	r3, [r4]	@ zero_extendqisi2
 1688 0010 032B     		cmp	r3, #3
 1689 0012 4AD1     		bne	.L150
 770:ff.c          **** 			/* Create FSInfo structure */
 1690              		.loc 1 770 0 is_stmt 0 discriminator 1
 1691 0014 6379     		ldrb	r3, [r4, #5]	@ zero_extendqisi2
 1692 0016 012B     		cmp	r3, #1
 1693 0018 47D1     		bne	.L150
 772:ff.c          **** 			ST_WORD(fs->win + BS_55AA, 0xAA55);
 1694              		.loc 1 772 0 is_stmt 1
 1695 001a 04F13406 		add	r6, r4, #52
 1696 001e 4FF40072 		mov	r2, #512
 1697 0022 0021     		movs	r1, #0
 1698 0024 3046     		mov	r0, r6
 1699              	.LVL242:
 1700 0026 FFF7FEFF 		bl	mem_set
 1701              	.LVL243:
 773:ff.c          **** 			ST_DWORD(fs->win + FSI_LeadSig, 0x41615252);
 1702              		.loc 1 773 0
 1703 002a 5523     		movs	r3, #85
 1704 002c 84F83232 		strb	r3, [r4, #562]
 1705 0030 AA23     		movs	r3, #170
 1706 0032 84F83332 		strb	r3, [r4, #563]
 774:ff.c          **** 			ST_DWORD(fs->win + FSI_StrucSig, 0x61417272);
 1707              		.loc 1 774 0
 1708 0036 5223     		movs	r3, #82
 1709 0038 84F83430 		strb	r3, [r4, #52]
 1710 003c 84F83530 		strb	r3, [r4, #53]
 1711 0040 6123     		movs	r3, #97
 1712 0042 84F83630 		strb	r3, [r4, #54]
 1713 0046 4122     		movs	r2, #65
 1714 0048 84F83720 		strb	r2, [r4, #55]
 775:ff.c          **** 			ST_DWORD(fs->win + FSI_Free_Count, fs->free_clust);
 1715              		.loc 1 775 0
 1716 004c 7221     		movs	r1, #114
 1717 004e 84F81812 		strb	r1, [r4, #536]
 1718 0052 84F81912 		strb	r1, [r4, #537]
 1719 0056 84F81A22 		strb	r2, [r4, #538]
 1720 005a 84F81B32 		strb	r3, [r4, #539]
 776:ff.c          **** 			ST_DWORD(fs->win + FSI_Nxt_Free, fs->last_clust);
 1721              		.loc 1 776 0
 1722 005e 2369     		ldr	r3, [r4, #16]
 1723 0060 84F81C32 		strb	r3, [r4, #540]
ARM GAS  C:\Users\linar\AppData\Local\Temp\ccAaFYxm.s 			page 76


 1724 0064 C3F30722 		ubfx	r2, r3, #8, #8
 1725 0068 84F81D22 		strb	r2, [r4, #541]
 1726 006c C3F30742 		ubfx	r2, r3, #16, #8
 1727 0070 84F81E22 		strb	r2, [r4, #542]
 1728 0074 1B0E     		lsrs	r3, r3, #24
 1729 0076 84F81F32 		strb	r3, [r4, #543]
 777:ff.c          **** 			/* Write it into the FSInfo sector */
 1730              		.loc 1 777 0
 1731 007a E368     		ldr	r3, [r4, #12]
 1732 007c 84F82032 		strb	r3, [r4, #544]
 1733 0080 C3F30722 		ubfx	r2, r3, #8, #8
 1734 0084 84F82122 		strb	r2, [r4, #545]
 1735 0088 C3F30742 		ubfx	r2, r3, #16, #8
 1736 008c 84F82222 		strb	r2, [r4, #546]
 1737 0090 1B0E     		lsrs	r3, r3, #24
 1738 0092 84F82332 		strb	r3, [r4, #547]
 779:ff.c          **** 			disk_write(fs->drv, fs->win, fs->winsect, 1);
 1739              		.loc 1 779 0
 1740 0096 226A     		ldr	r2, [r4, #32]
 1741 0098 0132     		adds	r2, r2, #1
 1742 009a 2263     		str	r2, [r4, #48]
 780:ff.c          **** 			fs->fsi_flag = 0;
 1743              		.loc 1 780 0
 1744 009c 0123     		movs	r3, #1
 1745 009e 3146     		mov	r1, r6
 1746 00a0 6078     		ldrb	r0, [r4, #1]	@ zero_extendqisi2
 1747 00a2 FFF7FEFF 		bl	disk_write
 1748              	.LVL244:
 781:ff.c          **** 		}
 1749              		.loc 1 781 0
 1750 00a6 0023     		movs	r3, #0
 1751 00a8 6371     		strb	r3, [r4, #5]
 1752              	.L150:
 784:ff.c          **** 			res = FR_DISK_ERR;
 1753              		.loc 1 784 0
 1754 00aa 0022     		movs	r2, #0
 1755 00ac 1146     		mov	r1, r2
 1756 00ae 6078     		ldrb	r0, [r4, #1]	@ zero_extendqisi2
 1757 00b0 FFF7FEFF 		bl	disk_ioctl
 1758              	.LVL245:
 1759 00b4 00B1     		cbz	r0, .L149
 785:ff.c          **** 	}
 1760              		.loc 1 785 0
 1761 00b6 0125     		movs	r5, #1
 1762              	.L149:
 1763              	.LVL246:
 789:ff.c          **** #endif
 1764              		.loc 1 789 0
 1765 00b8 2846     		mov	r0, r5
 1766 00ba 70BD     		pop	{r4, r5, r6, pc}
 1767              		.cfi_endproc
 1768              	.LFE6:
 1769              		.size	sync_fs, .-sync_fs
 1770              		.section	.text.clust2sect,"ax",%progbits
 1771              		.align	2
 1772              		.global	clust2sect
 1773              		.thumb
ARM GAS  C:\Users\linar\AppData\Local\Temp\ccAaFYxm.s 			page 77


 1774              		.thumb_func
 1775              		.type	clust2sect, %function
 1776              	clust2sect:
 1777              	.LFB7:
 804:ff.c          **** 	clst -= 2;
 1778              		.loc 1 804 0
 1779              		.cfi_startproc
 1780              		@ args = 0, pretend = 0, frame = 0
 1781              		@ frame_needed = 0, uses_anonymous_args = 0
 1782              		@ link register save eliminated.
 1783              	.LVL247:
 805:ff.c          **** 	if (clst >= fs->n_fatent - 2) return 0;		/* Invalid cluster# */
 1784              		.loc 1 805 0
 1785 0000 0239     		subs	r1, r1, #2
 1786              	.LVL248:
 806:ff.c          **** 	return clst * fs->csize + fs->database;
 1787              		.loc 1 806 0
 1788 0002 8369     		ldr	r3, [r0, #24]
 1789 0004 023B     		subs	r3, r3, #2
 1790 0006 9942     		cmp	r1, r3
 1791 0008 04D2     		bcs	.L155
 807:ff.c          **** }
 1792              		.loc 1 807 0
 1793 000a 8378     		ldrb	r3, [r0, #2]	@ zero_extendqisi2
 1794 000c C06A     		ldr	r0, [r0, #44]
 1795              	.LVL249:
 1796 000e 01FB0300 		mla	r0, r1, r3, r0
 1797 0012 7047     		bx	lr
 1798              	.LVL250:
 1799              	.L155:
 806:ff.c          **** 	return clst * fs->csize + fs->database;
 1800              		.loc 1 806 0
 1801 0014 0020     		movs	r0, #0
 1802              	.LVL251:
 808:ff.c          **** 
 1803              		.loc 1 808 0
 1804 0016 7047     		bx	lr
 1805              		.cfi_endproc
 1806              	.LFE7:
 1807              		.size	clust2sect, .-clust2sect
 1808              		.section	.text.get_fat,"ax",%progbits
 1809              		.align	2
 1810              		.global	get_fat
 1811              		.thumb
 1812              		.thumb_func
 1813              		.type	get_fat, %function
 1814              	get_fat:
 1815              	.LFB8:
 822:ff.c          **** 	UINT wc, bc;
 1816              		.loc 1 822 0
 1817              		.cfi_startproc
 1818              		@ args = 0, pretend = 0, frame = 0
 1819              		@ frame_needed = 0, uses_anonymous_args = 0
 1820              	.LVL252:
 828:ff.c          **** 		val = 1;	/* Internal error */
 1821              		.loc 1 828 0
 1822 0000 0129     		cmp	r1, #1
ARM GAS  C:\Users\linar\AppData\Local\Temp\ccAaFYxm.s 			page 78


 1823 0002 60D9     		bls	.L162
 822:ff.c          **** 	UINT wc, bc;
 1824              		.loc 1 822 0 discriminator 1
 1825 0004 F8B5     		push	{r3, r4, r5, r6, r7, lr}
 1826              		.cfi_def_cfa_offset 24
 1827              		.cfi_offset 3, -24
 1828              		.cfi_offset 4, -20
 1829              		.cfi_offset 5, -16
 1830              		.cfi_offset 6, -12
 1831              		.cfi_offset 7, -8
 1832              		.cfi_offset 14, -4
 828:ff.c          **** 		val = 1;	/* Internal error */
 1833              		.loc 1 828 0 discriminator 1
 1834 0006 8369     		ldr	r3, [r0, #24]
 1835 0008 9942     		cmp	r1, r3
 1836 000a 5ED2     		bcs	.L163
 1837 000c 0C46     		mov	r4, r1
 1838 000e 0646     		mov	r6, r0
 1839              	.LVL253:
 834:ff.c          **** 		case FS_FAT12 :
 1840              		.loc 1 834 0
 1841 0010 0378     		ldrb	r3, [r0]	@ zero_extendqisi2
 1842 0012 022B     		cmp	r3, #2
 1843 0014 29D0     		beq	.L158
 1844 0016 032B     		cmp	r3, #3
 1845 0018 3AD0     		beq	.L159
 1846 001a 012B     		cmp	r3, #1
 1847 001c 57D1     		bne	.L169
 1848              	.LVL254:
 836:ff.c          **** 			if (move_window(fs, fs->fatbase + (bc / SS(fs))) != FR_OK) break;
 1849              		.loc 1 836 0
 1850 001e 01EB5105 		add	r5, r1, r1, lsr #1
 1851              	.LVL255:
 837:ff.c          **** 			wc = fs->win[bc++ % SS(fs)];
 1852              		.loc 1 837 0
 1853 0022 416A     		ldr	r1, [r0, #36]
 1854              	.LVL256:
 1855 0024 01EB5521 		add	r1, r1, r5, lsr #9
 1856 0028 FFF7FEFF 		bl	move_window
 1857              	.LVL257:
 1858 002c 0028     		cmp	r0, #0
 1859 002e 50D1     		bne	.L165
 838:ff.c          **** 			if (move_window(fs, fs->fatbase + (bc / SS(fs))) != FR_OK) break;
 1860              		.loc 1 838 0
 1861 0030 6F1C     		adds	r7, r5, #1
 1862              	.LVL258:
 1863 0032 C5F30805 		ubfx	r5, r5, #0, #9
 1864 0036 3544     		add	r5, r5, r6
 1865 0038 95F83450 		ldrb	r5, [r5, #52]	@ zero_extendqisi2
 1866              	.LVL259:
 839:ff.c          **** 			wc |= fs->win[bc % SS(fs)] << 8;
 1867              		.loc 1 839 0
 1868 003c 716A     		ldr	r1, [r6, #36]
 1869 003e 01EB5721 		add	r1, r1, r7, lsr #9
 1870 0042 3046     		mov	r0, r6
 1871 0044 FFF7FEFF 		bl	move_window
 1872              	.LVL260:
ARM GAS  C:\Users\linar\AppData\Local\Temp\ccAaFYxm.s 			page 79


 1873 0048 0028     		cmp	r0, #0
 1874 004a 45D1     		bne	.L166
 840:ff.c          **** 			val = clst & 1 ? wc >> 4 : (wc & 0xFFF);
 1875              		.loc 1 840 0
 1876 004c C7F30800 		ubfx	r0, r7, #0, #9
 1877 0050 3044     		add	r0, r0, r6
 1878 0052 90F83400 		ldrb	r0, [r0, #52]	@ zero_extendqisi2
 1879 0056 45EA0020 		orr	r0, r5, r0, lsl #8
 1880              	.LVL261:
 841:ff.c          **** 			break;
 1881              		.loc 1 841 0
 1882 005a 14F0010F 		tst	r4, #1
 1883 005e 01D0     		beq	.L161
 841:ff.c          **** 			break;
 1884              		.loc 1 841 0 is_stmt 0 discriminator 1
 1885 0060 0009     		lsrs	r0, r0, #4
 1886              	.LVL262:
 1887 0062 F8BD     		pop	{r3, r4, r5, r6, r7, pc}
 1888              	.LVL263:
 1889              	.L161:
 841:ff.c          **** 			break;
 1890              		.loc 1 841 0 discriminator 2
 1891 0064 C0F30B00 		ubfx	r0, r0, #0, #12
 1892              	.LVL264:
 1893 0068 F8BD     		pop	{r3, r4, r5, r6, r7, pc}
 1894              	.LVL265:
 1895              	.L158:
 845:ff.c          **** 			p = &fs->win[clst * 2 % SS(fs)];
 1896              		.loc 1 845 0 is_stmt 1
 1897 006a 416A     		ldr	r1, [r0, #36]
 1898              	.LVL266:
 1899 006c 01EB1421 		add	r1, r1, r4, lsr #8
 1900 0070 FFF7FEFF 		bl	move_window
 1901              	.LVL267:
 1902 0074 98BB     		cbnz	r0, .L167
 846:ff.c          **** 			val = LD_WORD(p);
 1903              		.loc 1 846 0
 1904 0076 6100     		lsls	r1, r4, #1
 1905 0078 01F4FF71 		and	r1, r1, #510
 1906 007c 01F13003 		add	r3, r1, #48
 1907 0080 3344     		add	r3, r3, r6
 1908              	.LVL268:
 847:ff.c          **** 			break;
 1909              		.loc 1 847 0
 1910 0082 5879     		ldrb	r0, [r3, #5]	@ zero_extendqisi2
 1911 0084 0E44     		add	r6, r6, r1
 1912              	.LVL269:
 1913 0086 96F83430 		ldrb	r3, [r6, #52]	@ zero_extendqisi2
 1914              	.LVL270:
 1915 008a 43EA0020 		orr	r0, r3, r0, lsl #8
 1916              	.LVL271:
 848:ff.c          **** 
 1917              		.loc 1 848 0
 1918 008e F8BD     		pop	{r3, r4, r5, r6, r7, pc}
 1919              	.LVL272:
 1920              	.L159:
 851:ff.c          **** 			p = &fs->win[clst * 4 % SS(fs)];
ARM GAS  C:\Users\linar\AppData\Local\Temp\ccAaFYxm.s 			page 80


 1921              		.loc 1 851 0
 1922 0090 416A     		ldr	r1, [r0, #36]
 1923              	.LVL273:
 1924 0092 01EBD411 		add	r1, r1, r4, lsr #7
 1925 0096 FFF7FEFF 		bl	move_window
 1926              	.LVL274:
 1927 009a 18BB     		cbnz	r0, .L168
 852:ff.c          **** 			val = LD_DWORD(p) & 0x0FFFFFFF;
 1928              		.loc 1 852 0
 1929 009c A100     		lsls	r1, r4, #2
 1930 009e 01F4FE71 		and	r1, r1, #508
 1931 00a2 01F13002 		add	r2, r1, #48
 1932 00a6 3244     		add	r2, r2, r6
 1933              	.LVL275:
 853:ff.c          **** 			break;
 1934              		.loc 1 853 0
 1935 00a8 D079     		ldrb	r0, [r2, #7]	@ zero_extendqisi2
 1936 00aa 9379     		ldrb	r3, [r2, #6]	@ zero_extendqisi2
 1937 00ac 1B04     		lsls	r3, r3, #16
 1938 00ae 43EA0063 		orr	r3, r3, r0, lsl #24
 1939 00b2 5079     		ldrb	r0, [r2, #5]	@ zero_extendqisi2
 1940 00b4 43EA0023 		orr	r3, r3, r0, lsl #8
 1941 00b8 7018     		adds	r0, r6, r1
 1942 00ba 90F83400 		ldrb	r0, [r0, #52]	@ zero_extendqisi2
 1943 00be 1843     		orrs	r0, r0, r3
 1944 00c0 20F07040 		bic	r0, r0, #-268435456
 1945              	.LVL276:
 854:ff.c          **** 
 1946              		.loc 1 854 0
 1947 00c4 F8BD     		pop	{r3, r4, r5, r6, r7, pc}
 1948              	.LVL277:
 1949              	.L162:
 1950              		.cfi_def_cfa_offset 0
 1951              		.cfi_restore 3
 1952              		.cfi_restore 4
 1953              		.cfi_restore 5
 1954              		.cfi_restore 6
 1955              		.cfi_restore 7
 1956              		.cfi_restore 14
 829:ff.c          **** 
 1957              		.loc 1 829 0
 1958 00c6 0120     		movs	r0, #1
 1959              	.LVL278:
 862:ff.c          **** 
 1960              		.loc 1 862 0
 1961 00c8 7047     		bx	lr
 1962              	.LVL279:
 1963              	.L163:
 1964              		.cfi_def_cfa_offset 24
 1965              		.cfi_offset 3, -24
 1966              		.cfi_offset 4, -20
 1967              		.cfi_offset 5, -16
 1968              		.cfi_offset 6, -12
 1969              		.cfi_offset 7, -8
 1970              		.cfi_offset 14, -4
 829:ff.c          **** 
 1971              		.loc 1 829 0
ARM GAS  C:\Users\linar\AppData\Local\Temp\ccAaFYxm.s 			page 81


 1972 00ca 0120     		movs	r0, #1
 1973              	.LVL280:
 1974 00cc F8BD     		pop	{r3, r4, r5, r6, r7, pc}
 1975              	.LVL281:
 1976              	.L169:
 857:ff.c          **** 		}
 1977              		.loc 1 857 0
 1978 00ce 0120     		movs	r0, #1
 1979              	.LVL282:
 1980 00d0 F8BD     		pop	{r3, r4, r5, r6, r7, pc}
 1981              	.LVL283:
 1982              	.L165:
 832:ff.c          **** 
 1983              		.loc 1 832 0
 1984 00d2 4FF0FF30 		mov	r0, #-1
 1985 00d6 F8BD     		pop	{r3, r4, r5, r6, r7, pc}
 1986              	.LVL284:
 1987              	.L166:
 1988 00d8 4FF0FF30 		mov	r0, #-1
 1989 00dc F8BD     		pop	{r3, r4, r5, r6, r7, pc}
 1990              	.LVL285:
 1991              	.L167:
 1992 00de 4FF0FF30 		mov	r0, #-1
 1993 00e2 F8BD     		pop	{r3, r4, r5, r6, r7, pc}
 1994              	.LVL286:
 1995              	.L168:
 1996 00e4 4FF0FF30 		mov	r0, #-1
 1997              	.LVL287:
 862:ff.c          **** 
 1998              		.loc 1 862 0
 1999 00e8 F8BD     		pop	{r3, r4, r5, r6, r7, pc}
 2000              		.cfi_endproc
 2001              	.LFE8:
 2002              		.size	get_fat, .-get_fat
 2003 00ea 00BF     		.section	.text.dir_sdi,"ax",%progbits
 2004              		.align	2
 2005              		.thumb
 2006              		.thumb_func
 2007              		.type	dir_sdi, %function
 2008              	dir_sdi:
 2009              	.LFB12:
1084:ff.c          **** 	DWORD clst, sect;
 2010              		.loc 1 1084 0
 2011              		.cfi_startproc
 2012              		@ args = 0, pretend = 0, frame = 0
 2013              		@ frame_needed = 0, uses_anonymous_args = 0
 2014              	.LVL288:
 2015 0000 F8B5     		push	{r3, r4, r5, r6, r7, lr}
 2016              		.cfi_def_cfa_offset 24
 2017              		.cfi_offset 3, -24
 2018              		.cfi_offset 4, -20
 2019              		.cfi_offset 5, -16
 2020              		.cfi_offset 6, -12
 2021              		.cfi_offset 7, -8
 2022              		.cfi_offset 14, -4
 2023 0002 0546     		mov	r5, r0
1089:ff.c          **** 	clst = dp->sclust;		/* Table start cluster (0:root) */
ARM GAS  C:\Users\linar\AppData\Local\Temp\ccAaFYxm.s 			page 82


 2024              		.loc 1 1089 0
 2025 0004 C180     		strh	r1, [r0, #6]	@ movhi
1090:ff.c          **** 	if (clst == 1 || clst >= dp->fs->n_fatent)	/* Check start cluster range */
 2026              		.loc 1 1090 0
 2027 0006 8468     		ldr	r4, [r0, #8]
 2028              	.LVL289:
1091:ff.c          **** 		return FR_INT_ERR;
 2029              		.loc 1 1091 0
 2030 0008 012C     		cmp	r4, #1
 2031 000a 35D0     		beq	.L178
 2032 000c 0E46     		mov	r6, r1
1091:ff.c          **** 		return FR_INT_ERR;
 2033              		.loc 1 1091 0 is_stmt 0 discriminator 1
 2034 000e 0368     		ldr	r3, [r0]
 2035 0010 9A69     		ldr	r2, [r3, #24]
 2036 0012 9442     		cmp	r4, r2
 2037 0014 32D2     		bcs	.L179
1093:ff.c          **** 		clst = dp->fs->dirbase;
 2038              		.loc 1 1093 0 is_stmt 1
 2039 0016 1CB9     		cbnz	r4, .L173
1093:ff.c          **** 		clst = dp->fs->dirbase;
 2040              		.loc 1 1093 0 is_stmt 0 discriminator 1
 2041 0018 1A78     		ldrb	r2, [r3]	@ zero_extendqisi2
 2042 001a 032A     		cmp	r2, #3
 2043 001c 00D1     		bne	.L173
1094:ff.c          **** 
 2044              		.loc 1 1094 0 is_stmt 1
 2045 001e 9C6A     		ldr	r4, [r3, #40]
 2046              	.LVL290:
 2047              	.L173:
1096:ff.c          **** 		if (idx >= dp->fs->n_rootdir)	/* Is index out of range? */
 2048              		.loc 1 1096 0
 2049 0020 24B9     		cbnz	r4, .L174
1097:ff.c          **** 			return FR_INT_ERR;
 2050              		.loc 1 1097 0
 2051 0022 1A89     		ldrh	r2, [r3, #8]
 2052 0024 9642     		cmp	r6, r2
 2053 0026 2BD2     		bcs	.L180
1099:ff.c          **** 	}
 2054              		.loc 1 1099 0
 2055 0028 986A     		ldr	r0, [r3, #40]
 2056              	.LVL291:
 2057 002a 17E0     		b	.L175
 2058              	.LVL292:
 2059              	.L174:
1102:ff.c          **** 		while (idx >= ic) {	/* Follow cluster chain */
 2060              		.loc 1 1102 0
 2061 002c 9F78     		ldrb	r7, [r3, #2]	@ zero_extendqisi2
 2062 002e 3F01     		lsls	r7, r7, #4
 2063              	.LVL293:
1103:ff.c          **** 			clst = get_fat(dp->fs, clst);				/* Get next cluster */
 2064              		.loc 1 1103 0
 2065 0030 0EE0     		b	.L176
 2066              	.LVL294:
 2067              	.L177:
1104:ff.c          **** 			if (clst == 0xFFFFFFFF) return FR_DISK_ERR;	/* Disk error */
 2068              		.loc 1 1104 0
ARM GAS  C:\Users\linar\AppData\Local\Temp\ccAaFYxm.s 			page 83


 2069 0032 2146     		mov	r1, r4
 2070 0034 2868     		ldr	r0, [r5]
 2071 0036 FFF7FEFF 		bl	get_fat
 2072              	.LVL295:
 2073 003a 0446     		mov	r4, r0
 2074              	.LVL296:
1105:ff.c          **** 			if (clst < 2 || clst >= dp->fs->n_fatent)	/* Reached to end of table or internal error */
 2075              		.loc 1 1105 0
 2076 003c B0F1FF3F 		cmp	r0, #-1
 2077 0040 20D0     		beq	.L181
1106:ff.c          **** 				return FR_INT_ERR;
 2078              		.loc 1 1106 0
 2079 0042 0128     		cmp	r0, #1
 2080 0044 20D9     		bls	.L182
1106:ff.c          **** 				return FR_INT_ERR;
 2081              		.loc 1 1106 0 is_stmt 0 discriminator 1
 2082 0046 2B68     		ldr	r3, [r5]
 2083 0048 9B69     		ldr	r3, [r3, #24]
 2084 004a 9842     		cmp	r0, r3
 2085 004c 1ED2     		bcs	.L183
1108:ff.c          **** 		}
 2086              		.loc 1 1108 0 is_stmt 1
 2087 004e F61B     		subs	r6, r6, r7
 2088              	.LVL297:
 2089              	.L176:
1103:ff.c          **** 			clst = get_fat(dp->fs, clst);				/* Get next cluster */
 2090              		.loc 1 1103 0
 2091 0050 BE42     		cmp	r6, r7
 2092 0052 EED2     		bcs	.L177
1110:ff.c          **** 	}
 2093              		.loc 1 1110 0
 2094 0054 2146     		mov	r1, r4
 2095 0056 2868     		ldr	r0, [r5]
 2096 0058 FFF7FEFF 		bl	clust2sect
 2097              	.LVL298:
 2098              	.L175:
1112:ff.c          **** 	if (!sect) return FR_INT_ERR;
 2099              		.loc 1 1112 0
 2100 005c EC60     		str	r4, [r5, #12]
1113:ff.c          **** 	dp->sect = sect + idx / (SS(dp->fs) / SZ_DIRE);					/* Sector# of the directory entry */
 2101              		.loc 1 1113 0
 2102 005e B8B1     		cbz	r0, .L184
1114:ff.c          **** 	dp->dir = dp->fs->win + (idx % (SS(dp->fs) / SZ_DIRE)) * SZ_DIRE;	/* Ptr to the entry in the secto
 2103              		.loc 1 1114 0
 2104 0060 00EB1610 		add	r0, r0, r6, lsr #4
 2105              	.LVL299:
 2106 0064 2861     		str	r0, [r5, #16]
1115:ff.c          **** 
 2107              		.loc 1 1115 0
 2108 0066 2B68     		ldr	r3, [r5]
 2109 0068 3433     		adds	r3, r3, #52
 2110 006a 06F00F06 		and	r6, r6, #15
 2111              	.LVL300:
 2112 006e 03EB4616 		add	r6, r3, r6, lsl #5
 2113 0072 6E61     		str	r6, [r5, #20]
1117:ff.c          **** }
 2114              		.loc 1 1117 0
ARM GAS  C:\Users\linar\AppData\Local\Temp\ccAaFYxm.s 			page 84


 2115 0074 0020     		movs	r0, #0
 2116 0076 F8BD     		pop	{r3, r4, r5, r6, r7, pc}
 2117              	.LVL301:
 2118              	.L178:
1092:ff.c          **** 	if (!clst && dp->fs->fs_type == FS_FAT32)	/* Replace cluster# 0 with root cluster# if in FAT32 */
 2119              		.loc 1 1092 0
 2120 0078 0220     		movs	r0, #2
 2121              	.LVL302:
 2122 007a F8BD     		pop	{r3, r4, r5, r6, r7, pc}
 2123              	.LVL303:
 2124              	.L179:
 2125 007c 0220     		movs	r0, #2
 2126              	.LVL304:
 2127 007e F8BD     		pop	{r3, r4, r5, r6, r7, pc}
 2128              	.LVL305:
 2129              	.L180:
1098:ff.c          **** 		sect = dp->fs->dirbase;
 2130              		.loc 1 1098 0
 2131 0080 0220     		movs	r0, #2
 2132              	.LVL306:
 2133 0082 F8BD     		pop	{r3, r4, r5, r6, r7, pc}
 2134              	.LVL307:
 2135              	.L181:
1105:ff.c          **** 			if (clst < 2 || clst >= dp->fs->n_fatent)	/* Reached to end of table or internal error */
 2136              		.loc 1 1105 0
 2137 0084 0120     		movs	r0, #1
 2138              	.LVL308:
 2139 0086 F8BD     		pop	{r3, r4, r5, r6, r7, pc}
 2140              	.LVL309:
 2141              	.L182:
1107:ff.c          **** 			idx -= ic;
 2142              		.loc 1 1107 0
 2143 0088 0220     		movs	r0, #2
 2144              	.LVL310:
 2145 008a F8BD     		pop	{r3, r4, r5, r6, r7, pc}
 2146              	.LVL311:
 2147              	.L183:
 2148 008c 0220     		movs	r0, #2
 2149              	.LVL312:
 2150 008e F8BD     		pop	{r3, r4, r5, r6, r7, pc}
 2151              	.LVL313:
 2152              	.L184:
1113:ff.c          **** 	dp->sect = sect + idx / (SS(dp->fs) / SZ_DIRE);					/* Sector# of the directory entry */
 2153              		.loc 1 1113 0
 2154 0090 0220     		movs	r0, #2
 2155              	.LVL314:
1118:ff.c          **** 
 2156              		.loc 1 1118 0
 2157 0092 F8BD     		pop	{r3, r4, r5, r6, r7, pc}
 2158              		.cfi_endproc
 2159              	.LFE12:
 2160              		.size	dir_sdi, .-dir_sdi
 2161              		.section	.text.dir_remove,"ax",%progbits
 2162              		.align	2
 2163              		.thumb
 2164              		.thumb_func
 2165              		.type	dir_remove, %function
ARM GAS  C:\Users\linar\AppData\Local\Temp\ccAaFYxm.s 			page 85


 2166              	dir_remove:
 2167              	.LFB20:
1659:ff.c          **** 	FRESULT res;
 2168              		.loc 1 1659 0
 2169              		.cfi_startproc
 2170              		@ args = 0, pretend = 0, frame = 0
 2171              		@ frame_needed = 0, uses_anonymous_args = 0
 2172              	.LVL315:
 2173 0000 38B5     		push	{r3, r4, r5, lr}
 2174              		.cfi_def_cfa_offset 16
 2175              		.cfi_offset 3, -16
 2176              		.cfi_offset 4, -12
 2177              		.cfi_offset 5, -8
 2178              		.cfi_offset 14, -4
 2179 0002 0446     		mov	r4, r0
1680:ff.c          **** 	if (res == FR_OK) {
 2180              		.loc 1 1680 0
 2181 0004 C188     		ldrh	r1, [r0, #6]
 2182 0006 FFF7FEFF 		bl	dir_sdi
 2183              	.LVL316:
1681:ff.c          **** 		res = move_window(dp->fs, dp->sect);
 2184              		.loc 1 1681 0
 2185 000a 0546     		mov	r5, r0
 2186 000c 80B9     		cbnz	r0, .L187
1682:ff.c          **** 		if (res == FR_OK) {
 2187              		.loc 1 1682 0
 2188 000e 2169     		ldr	r1, [r4, #16]
 2189 0010 2068     		ldr	r0, [r4]
 2190              	.LVL317:
 2191 0012 FFF7FEFF 		bl	move_window
 2192              	.LVL318:
1683:ff.c          **** 			mem_set(dp->dir, 0, SZ_DIRE);	/* Clear and mark the entry "deleted" */
 2193              		.loc 1 1683 0
 2194 0016 0546     		mov	r5, r0
 2195 0018 50B9     		cbnz	r0, .L187
1684:ff.c          **** 			*dp->dir = DDEM;
 2196              		.loc 1 1684 0
 2197 001a 2022     		movs	r2, #32
 2198 001c 0021     		movs	r1, #0
 2199 001e 6069     		ldr	r0, [r4, #20]
 2200              	.LVL319:
 2201 0020 FFF7FEFF 		bl	mem_set
 2202              	.LVL320:
1685:ff.c          **** 			dp->fs->wflag = 1;
 2203              		.loc 1 1685 0
 2204 0024 6369     		ldr	r3, [r4, #20]
 2205 0026 E522     		movs	r2, #229
 2206 0028 1A70     		strb	r2, [r3]
1686:ff.c          **** 		}
 2207              		.loc 1 1686 0
 2208 002a 2368     		ldr	r3, [r4]
 2209 002c 0122     		movs	r2, #1
 2210 002e 1A71     		strb	r2, [r3, #4]
 2211              	.L187:
 2212              	.LVL321:
1692:ff.c          **** #endif /* !_FS_READONLY */
 2213              		.loc 1 1692 0
ARM GAS  C:\Users\linar\AppData\Local\Temp\ccAaFYxm.s 			page 86


 2214 0030 2846     		mov	r0, r5
 2215 0032 38BD     		pop	{r3, r4, r5, pc}
 2216              		.cfi_endproc
 2217              	.LFE20:
 2218              		.size	dir_remove, .-dir_remove
 2219              		.section	.text.put_fat,"ax",%progbits
 2220              		.align	2
 2221              		.global	put_fat
 2222              		.thumb
 2223              		.thumb_func
 2224              		.type	put_fat, %function
 2225              	put_fat:
 2226              	.LFB9:
 878:ff.c          **** 	UINT bc;
 2227              		.loc 1 878 0
 2228              		.cfi_startproc
 2229              		@ args = 0, pretend = 0, frame = 0
 2230              		@ frame_needed = 0, uses_anonymous_args = 0
 2231              	.LVL322:
 884:ff.c          **** 		res = FR_INT_ERR;
 2232              		.loc 1 884 0
 2233 0000 0129     		cmp	r1, #1
 2234 0002 40F28780 		bls	.L198
 884:ff.c          **** 		res = FR_INT_ERR;
 2235              		.loc 1 884 0 is_stmt 0 discriminator 1
 2236 0006 8369     		ldr	r3, [r0, #24]
 2237 0008 9942     		cmp	r1, r3
 2238 000a 80F08680 		bcs	.L199
 878:ff.c          **** 	UINT bc;
 2239              		.loc 1 878 0 is_stmt 1
 2240 000e 2DE9F041 		push	{r4, r5, r6, r7, r8, lr}
 2241              		.cfi_def_cfa_offset 24
 2242              		.cfi_offset 4, -24
 2243              		.cfi_offset 5, -20
 2244              		.cfi_offset 6, -16
 2245              		.cfi_offset 7, -12
 2246              		.cfi_offset 8, -8
 2247              		.cfi_offset 14, -4
 2248 0012 1646     		mov	r6, r2
 2249 0014 0C46     		mov	r4, r1
 2250 0016 0546     		mov	r5, r0
 888:ff.c          **** 		case FS_FAT12 :
 2251              		.loc 1 888 0
 2252 0018 0378     		ldrb	r3, [r0]	@ zero_extendqisi2
 2253 001a 022B     		cmp	r3, #2
 2254 001c 41D0     		beq	.L191
 2255 001e 032B     		cmp	r3, #3
 2256 0020 55D0     		beq	.L192
 2257 0022 012B     		cmp	r3, #1
 2258 0024 7BD1     		bne	.L201
 2259              	.LVL323:
 890:ff.c          **** 			res = move_window(fs, fs->fatbase + (bc / SS(fs)));
 2260              		.loc 1 890 0
 2261 0026 01EB5107 		add	r7, r1, r1, lsr #1
 2262              	.LVL324:
 891:ff.c          **** 			if (res != FR_OK) break;
 2263              		.loc 1 891 0
ARM GAS  C:\Users\linar\AppData\Local\Temp\ccAaFYxm.s 			page 87


 2264 002a 416A     		ldr	r1, [r0, #36]
 2265              	.LVL325:
 2266 002c 01EB5721 		add	r1, r1, r7, lsr #9
 2267 0030 FFF7FEFF 		bl	move_window
 2268              	.LVL326:
 892:ff.c          **** 			p = &fs->win[bc++ % SS(fs)];
 2269              		.loc 1 892 0
 2270 0034 0346     		mov	r3, r0
 2271 0036 0028     		cmp	r0, #0
 2272 0038 72D1     		bne	.L190
 893:ff.c          **** 			*p = (clst & 1) ? ((*p & 0x0F) | ((BYTE)val << 4)) : (BYTE)val;
 2273              		.loc 1 893 0
 2274 003a 07F10108 		add	r8, r7, #1
 2275              	.LVL327:
 2276 003e C7F30807 		ubfx	r7, r7, #0, #9
 2277              	.LVL328:
 894:ff.c          **** 			fs->wflag = 1;
 2278              		.loc 1 894 0
 2279 0042 14F00104 		ands	r4, r4, #1
 2280              	.LVL329:
 2281 0046 08D0     		beq	.L194
 894:ff.c          **** 			fs->wflag = 1;
 2282              		.loc 1 894 0 is_stmt 0 discriminator 1
 2283 0048 EB19     		adds	r3, r5, r7
 2284 004a 93F83430 		ldrb	r3, [r3, #52]	@ zero_extendqisi2
 2285 004e 03F00F03 		and	r3, r3, #15
 2286 0052 43EA0613 		orr	r3, r3, r6, lsl #4
 2287 0056 DBB2     		uxtb	r3, r3
 2288 0058 00E0     		b	.L195
 2289              	.L194:
 894:ff.c          **** 			fs->wflag = 1;
 2290              		.loc 1 894 0 discriminator 2
 2291 005a F3B2     		uxtb	r3, r6
 2292              	.L195:
 894:ff.c          **** 			fs->wflag = 1;
 2293              		.loc 1 894 0 discriminator 4
 2294 005c 2F44     		add	r7, r7, r5
 2295              	.LVL330:
 2296 005e 87F83430 		strb	r3, [r7, #52]
 895:ff.c          **** 			res = move_window(fs, fs->fatbase + (bc / SS(fs)));
 2297              		.loc 1 895 0 is_stmt 1 discriminator 4
 2298 0062 0123     		movs	r3, #1
 2299 0064 2B71     		strb	r3, [r5, #4]
 896:ff.c          **** 			if (res != FR_OK) break;
 2300              		.loc 1 896 0 discriminator 4
 2301 0066 696A     		ldr	r1, [r5, #36]
 2302 0068 01EB5821 		add	r1, r1, r8, lsr #9
 2303 006c 2846     		mov	r0, r5
 2304              	.LVL331:
 2305 006e FFF7FEFF 		bl	move_window
 2306              	.LVL332:
 897:ff.c          **** 			p = &fs->win[bc % SS(fs)];
 2307              		.loc 1 897 0 discriminator 4
 2308 0072 0346     		mov	r3, r0
 2309 0074 0028     		cmp	r0, #0
 2310 0076 53D1     		bne	.L190
 898:ff.c          **** 			*p = (clst & 1) ? (BYTE)(val >> 4) : ((*p & 0xF0) | ((BYTE)(val >> 8) & 0x0F));
ARM GAS  C:\Users\linar\AppData\Local\Temp\ccAaFYxm.s 			page 88


 2311              		.loc 1 898 0
 2312 0078 C8F30808 		ubfx	r8, r8, #0, #9
 2313              	.LVL333:
 899:ff.c          **** 			fs->wflag = 1;
 2314              		.loc 1 899 0
 2315 007c 14B1     		cbz	r4, .L196
 899:ff.c          **** 			fs->wflag = 1;
 2316              		.loc 1 899 0 is_stmt 0 discriminator 1
 2317 007e C6F30712 		ubfx	r2, r6, #4, #8
 2318 0082 08E0     		b	.L197
 2319              	.L196:
 899:ff.c          **** 			fs->wflag = 1;
 2320              		.loc 1 899 0 discriminator 2
 2321 0084 05EB0802 		add	r2, r5, r8
 2322 0088 92F83420 		ldrb	r2, [r2, #52]	@ zero_extendqisi2
 2323 008c 22F00F01 		bic	r1, r2, #15
 2324 0090 C6F30322 		ubfx	r2, r6, #8, #4
 2325 0094 0A43     		orrs	r2, r2, r1
 2326              	.L197:
 899:ff.c          **** 			fs->wflag = 1;
 2327              		.loc 1 899 0 discriminator 4
 2328 0096 A844     		add	r8, r8, r5
 2329              	.LVL334:
 2330 0098 88F83420 		strb	r2, [r8, #52]
 900:ff.c          **** 			break;
 2331              		.loc 1 900 0 is_stmt 1 discriminator 4
 2332 009c 0122     		movs	r2, #1
 2333 009e 2A71     		strb	r2, [r5, #4]
 901:ff.c          **** 
 2334              		.loc 1 901 0 discriminator 4
 2335 00a0 3EE0     		b	.L190
 2336              	.LVL335:
 2337              	.L191:
 904:ff.c          **** 			if (res != FR_OK) break;
 2338              		.loc 1 904 0
 2339 00a2 416A     		ldr	r1, [r0, #36]
 2340              	.LVL336:
 2341 00a4 01EB1421 		add	r1, r1, r4, lsr #8
 2342 00a8 FFF7FEFF 		bl	move_window
 2343              	.LVL337:
 905:ff.c          **** 			p = &fs->win[clst * 2 % SS(fs)];
 2344              		.loc 1 905 0
 2345 00ac 0346     		mov	r3, r0
 2346 00ae B8BB     		cbnz	r0, .L190
 906:ff.c          **** 			ST_WORD(p, (WORD)val);
 2347              		.loc 1 906 0
 2348 00b0 6100     		lsls	r1, r4, #1
 2349 00b2 01F4FF71 		and	r1, r1, #510
 2350 00b6 01F13000 		add	r0, r1, #48
 2351              	.LVL338:
 2352 00ba 2844     		add	r0, r0, r5
 2353              	.LVL339:
 907:ff.c          **** 			fs->wflag = 1;
 2354              		.loc 1 907 0
 2355 00bc 2944     		add	r1, r1, r5
 2356 00be 81F83460 		strb	r6, [r1, #52]
 2357 00c2 C6F30722 		ubfx	r2, r6, #8, #8
ARM GAS  C:\Users\linar\AppData\Local\Temp\ccAaFYxm.s 			page 89


 2358 00c6 4271     		strb	r2, [r0, #5]
 908:ff.c          **** 			break;
 2359              		.loc 1 908 0
 2360 00c8 0122     		movs	r2, #1
 2361 00ca 2A71     		strb	r2, [r5, #4]
 909:ff.c          **** 
 2362              		.loc 1 909 0
 2363 00cc 28E0     		b	.L190
 2364              	.LVL340:
 2365              	.L192:
 912:ff.c          **** 			if (res != FR_OK) break;
 2366              		.loc 1 912 0
 2367 00ce 416A     		ldr	r1, [r0, #36]
 2368              	.LVL341:
 2369 00d0 01EBD411 		add	r1, r1, r4, lsr #7
 2370 00d4 FFF7FEFF 		bl	move_window
 2371              	.LVL342:
 913:ff.c          **** 			p = &fs->win[clst * 4 % SS(fs)];
 2372              		.loc 1 913 0
 2373 00d8 0346     		mov	r3, r0
 2374 00da 08BB     		cbnz	r0, .L190
 914:ff.c          **** 			val |= LD_DWORD(p) & 0xF0000000;
 2375              		.loc 1 914 0
 2376 00dc A100     		lsls	r1, r4, #2
 2377 00de 01F4FE71 		and	r1, r1, #508
 2378 00e2 01F13000 		add	r0, r1, #48
 2379              	.LVL343:
 2380 00e6 2844     		add	r0, r0, r5
 2381              	.LVL344:
 915:ff.c          **** 			ST_DWORD(p, val);
 2382              		.loc 1 915 0
 2383 00e8 C479     		ldrb	r4, [r0, #7]	@ zero_extendqisi2
 2384              	.LVL345:
 2385 00ea 8279     		ldrb	r2, [r0, #6]	@ zero_extendqisi2
 2386 00ec 1204     		lsls	r2, r2, #16
 2387 00ee 42EA0462 		orr	r2, r2, r4, lsl #24
 2388 00f2 2944     		add	r1, r1, r5
 2389 00f4 02F07042 		and	r2, r2, #-268435456
 2390 00f8 3243     		orrs	r2, r2, r6
 2391              	.LVL346:
 916:ff.c          **** 			fs->wflag = 1;
 2392              		.loc 1 916 0
 2393 00fa 81F83420 		strb	r2, [r1, #52]
 2394 00fe C2F30721 		ubfx	r1, r2, #8, #8
 2395 0102 4171     		strb	r1, [r0, #5]
 2396 0104 C2F30741 		ubfx	r1, r2, #16, #8
 2397 0108 8171     		strb	r1, [r0, #6]
 2398 010a 120E     		lsrs	r2, r2, #24
 2399              	.LVL347:
 2400 010c C271     		strb	r2, [r0, #7]
 917:ff.c          **** 			break;
 2401              		.loc 1 917 0
 2402 010e 0122     		movs	r2, #1
 2403 0110 2A71     		strb	r2, [r5, #4]
 918:ff.c          **** 
 2404              		.loc 1 918 0
 2405 0112 05E0     		b	.L190
ARM GAS  C:\Users\linar\AppData\Local\Temp\ccAaFYxm.s 			page 90


 2406              	.LVL348:
 2407              	.L198:
 2408              		.cfi_def_cfa_offset 0
 2409              		.cfi_restore 4
 2410              		.cfi_restore 5
 2411              		.cfi_restore 6
 2412              		.cfi_restore 7
 2413              		.cfi_restore 8
 2414              		.cfi_restore 14
 885:ff.c          **** 
 2415              		.loc 1 885 0
 2416 0114 0223     		movs	r3, #2
 2417              	.L203:
 2418              	.LVL349:
 926:ff.c          **** #endif /* !_FS_READONLY */
 2419              		.loc 1 926 0
 2420 0116 1846     		mov	r0, r3
 2421              	.LVL350:
 2422 0118 7047     		bx	lr
 2423              	.LVL351:
 2424              	.L199:
 885:ff.c          **** 
 2425              		.loc 1 885 0
 2426 011a 0223     		movs	r3, #2
 2427 011c FBE7     		b	.L203
 2428              	.L201:
 2429              		.cfi_def_cfa_offset 24
 2430              		.cfi_offset 4, -24
 2431              		.cfi_offset 5, -20
 2432              		.cfi_offset 6, -16
 2433              		.cfi_offset 7, -12
 2434              		.cfi_offset 8, -8
 2435              		.cfi_offset 14, -4
 921:ff.c          **** 		}
 2436              		.loc 1 921 0
 2437 011e 0223     		movs	r3, #2
 2438              	.LVL352:
 2439              	.L190:
 926:ff.c          **** #endif /* !_FS_READONLY */
 2440              		.loc 1 926 0
 2441 0120 1846     		mov	r0, r3
 2442 0122 BDE8F081 		pop	{r4, r5, r6, r7, r8, pc}
 2443              		.cfi_endproc
 2444              	.LFE9:
 2445              		.size	put_fat, .-put_fat
 2446 0126 00BF     		.section	.text.create_chain,"ax",%progbits
 2447              		.align	2
 2448              		.thumb
 2449              		.thumb_func
 2450              		.type	create_chain, %function
 2451              	create_chain:
 2452              	.LFB11:
 994:ff.c          **** 	DWORD cs, ncl, scl;
 2453              		.loc 1 994 0
 2454              		.cfi_startproc
 2455              		@ args = 0, pretend = 0, frame = 0
 2456              		@ frame_needed = 0, uses_anonymous_args = 0
