ARM GAS  C:\Users\linar\AppData\Local\Temp\ccpLyYLJ.s 			page 1


   1              		.syntax unified
   2              		.cpu cortex-m3
   3              		.fpu softvfp
   4              		.eabi_attribute 20, 1
   5              		.eabi_attribute 21, 1
   6              		.eabi_attribute 23, 3
   7              		.eabi_attribute 24, 1
   8              		.eabi_attribute 25, 1
   9              		.eabi_attribute 26, 1
  10              		.eabi_attribute 30, 1
  11              		.eabi_attribute 34, 1
  12              		.eabi_attribute 18, 4
  13              		.thumb
  14              		.syntax unified
  15              		.file	"flash.c"
  16              		.text
  17              	.Ltext0:
  18              		.cfi_sections	.debug_frame
  19              		.section	.text._sendCmd,"ax",%progbits
  20              		.align	2
  21              		.global	_sendCmd
  22              		.thumb
  23              		.thumb_func
  24              		.type	_sendCmd, %function
  25              	_sendCmd:
  26              	.LFB64:
  27              		.file 1 "flash.c"
   1:flash.c       **** #include "flash.h"
   2:flash.c       **** #include "project.h"
   3:flash.c       **** #include <stdio.h>
   4:flash.c       **** 
   5:flash.c       **** void _sendCmd(uint8 cmd)
   6:flash.c       **** {
  28              		.loc 1 6 0
  29              		.cfi_startproc
  30              		@ args = 0, pretend = 0, frame = 0
  31              		@ frame_needed = 0, uses_anonymous_args = 0
  32              	.LVL0:
  33 0000 08B5     		push	{r3, lr}
  34              		.cfi_def_cfa_offset 8
  35              		.cfi_offset 3, -8
  36              		.cfi_offset 14, -4
   7:flash.c       ****   SPIM_1_WriteTxData(cmd);
  37              		.loc 1 7 0
  38 0002 FFF7FEFF 		bl	SPIM_1_WriteTxData
  39              	.LVL1:
  40              	.L2:
   8:flash.c       ****   while( (SPIM_1_ReadTxStatus() & SPIM_1_STS_SPI_DONE) == 0){}
  41              		.loc 1 8 0 discriminator 1
  42 0006 FFF7FEFF 		bl	SPIM_1_ReadTxStatus
  43              	.LVL2:
  44 000a 10F0010F 		tst	r0, #1
  45 000e FAD0     		beq	.L2
   9:flash.c       **** }
  46              		.loc 1 9 0
  47 0010 08BD     		pop	{r3, pc}
  48              		.cfi_endproc
ARM GAS  C:\Users\linar\AppData\Local\Temp\ccpLyYLJ.s 			page 2


  49              	.LFE64:
  50              		.size	_sendCmd, .-_sendCmd
  51 0012 00BF     		.section	.text._writeEnable,"ax",%progbits
  52              		.align	2
  53              		.global	_writeEnable
  54              		.thumb
  55              		.thumb_func
  56              		.type	_writeEnable, %function
  57              	_writeEnable:
  58              	.LFB65:
  10:flash.c       **** 
  11:flash.c       **** void _writeEnable()
  12:flash.c       **** {
  59              		.loc 1 12 0
  60              		.cfi_startproc
  61              		@ args = 0, pretend = 0, frame = 0
  62              		@ frame_needed = 0, uses_anonymous_args = 0
  63 0000 08B5     		push	{r3, lr}
  64              		.cfi_def_cfa_offset 8
  65              		.cfi_offset 3, -8
  66              		.cfi_offset 14, -4
  13:flash.c       ****   cs_Write(0);
  67              		.loc 1 13 0
  68 0002 0020     		movs	r0, #0
  69 0004 FFF7FEFF 		bl	cs_Write
  70              	.LVL3:
  14:flash.c       ****   _sendCmd(WRITE_EN);
  71              		.loc 1 14 0
  72 0008 0620     		movs	r0, #6
  73 000a FFF7FEFF 		bl	_sendCmd
  74              	.LVL4:
  15:flash.c       ****   cs_Write(1);
  75              		.loc 1 15 0
  76 000e 0120     		movs	r0, #1
  77 0010 FFF7FEFF 		bl	cs_Write
  78              	.LVL5:
  79 0014 08BD     		pop	{r3, pc}
  80              		.cfi_endproc
  81              	.LFE65:
  82              		.size	_writeEnable, .-_writeEnable
  83 0016 00BF     		.section	.text._writeDisable,"ax",%progbits
  84              		.align	2
  85              		.global	_writeDisable
  86              		.thumb
  87              		.thumb_func
  88              		.type	_writeDisable, %function
  89              	_writeDisable:
  90              	.LFB66:
  16:flash.c       **** }
  17:flash.c       **** 
  18:flash.c       **** void _writeDisable()
  19:flash.c       **** {
  91              		.loc 1 19 0
  92              		.cfi_startproc
  93              		@ args = 0, pretend = 0, frame = 0
  94              		@ frame_needed = 0, uses_anonymous_args = 0
  95 0000 08B5     		push	{r3, lr}
ARM GAS  C:\Users\linar\AppData\Local\Temp\ccpLyYLJ.s 			page 3


  96              		.cfi_def_cfa_offset 8
  97              		.cfi_offset 3, -8
  98              		.cfi_offset 14, -4
  20:flash.c       ****   cs_Write(0);
  99              		.loc 1 20 0
 100 0002 0020     		movs	r0, #0
 101 0004 FFF7FEFF 		bl	cs_Write
 102              	.LVL6:
  21:flash.c       ****   _sendCmd(WRITE_DIS);
 103              		.loc 1 21 0
 104 0008 0420     		movs	r0, #4
 105 000a FFF7FEFF 		bl	_sendCmd
 106              	.LVL7:
  22:flash.c       ****   cs_Write(1);
 107              		.loc 1 22 0
 108 000e 0120     		movs	r0, #1
 109 0010 FFF7FEFF 		bl	cs_Write
 110              	.LVL8:
 111 0014 08BD     		pop	{r3, pc}
 112              		.cfi_endproc
 113              	.LFE66:
 114              		.size	_writeDisable, .-_writeDisable
 115 0016 00BF     		.section	.text._readStatusReg,"ax",%progbits
 116              		.align	2
 117              		.global	_readStatusReg
 118              		.thumb
 119              		.thumb_func
 120              		.type	_readStatusReg, %function
 121              	_readStatusReg:
 122              	.LFB67:
  23:flash.c       **** }
  24:flash.c       **** 
  25:flash.c       **** uint8 _readStatusReg()
  26:flash.c       **** {
 123              		.loc 1 26 0
 124              		.cfi_startproc
 125              		@ args = 0, pretend = 0, frame = 0
 126              		@ frame_needed = 0, uses_anonymous_args = 0
 127 0000 08B5     		push	{r3, lr}
 128              		.cfi_def_cfa_offset 8
 129              		.cfi_offset 3, -8
 130              		.cfi_offset 14, -4
 131              	.LVL9:
  27:flash.c       ****   uint8 reg = 0;
  28:flash.c       ****   
  29:flash.c       ****   SPIM_1_ClearRxBuffer();
 132              		.loc 1 29 0
 133 0002 FFF7FEFF 		bl	SPIM_1_ClearRxBuffer
 134              	.LVL10:
  30:flash.c       ****   
  31:flash.c       ****   cs_Write(0);
 135              		.loc 1 31 0
 136 0006 0020     		movs	r0, #0
 137 0008 FFF7FEFF 		bl	cs_Write
 138              	.LVL11:
  32:flash.c       ****   _sendCmd(READ_STATUS_REG);
 139              		.loc 1 32 0
ARM GAS  C:\Users\linar\AppData\Local\Temp\ccpLyYLJ.s 			page 4


 140 000c 0520     		movs	r0, #5
 141 000e FFF7FEFF 		bl	_sendCmd
 142              	.LVL12:
  33:flash.c       ****   _sendCmd(SHIFT_OUT);
 143              		.loc 1 33 0
 144 0012 0020     		movs	r0, #0
 145 0014 FFF7FEFF 		bl	_sendCmd
 146              	.LVL13:
  34:flash.c       ****   cs_Write(1);
 147              		.loc 1 34 0
 148 0018 0120     		movs	r0, #1
 149 001a FFF7FEFF 		bl	cs_Write
 150              	.LVL14:
  35:flash.c       ****     
  36:flash.c       ****   SPIM_1_ReadRxData();
 151              		.loc 1 36 0
 152 001e FFF7FEFF 		bl	SPIM_1_ReadRxData
 153              	.LVL15:
  37:flash.c       ****   reg = SPIM_1_ReadRxData();
 154              		.loc 1 37 0
 155 0022 FFF7FEFF 		bl	SPIM_1_ReadRxData
 156              	.LVL16:
  38:flash.c       **** 
  39:flash.c       ****   return reg;
  40:flash.c       **** }
 157              		.loc 1 40 0
 158 0026 08BD     		pop	{r3, pc}
 159              		.cfi_endproc
 160              	.LFE67:
 161              		.size	_readStatusReg, .-_readStatusReg
 162              		.section	.text._checkWIP,"ax",%progbits
 163              		.align	2
 164              		.global	_checkWIP
 165              		.thumb
 166              		.thumb_func
 167              		.type	_checkWIP, %function
 168              	_checkWIP:
 169              	.LFB68:
  41:flash.c       **** 
  42:flash.c       **** BOOL _checkWIP()
  43:flash.c       **** {
 170              		.loc 1 43 0
 171              		.cfi_startproc
 172              		@ args = 0, pretend = 0, frame = 0
 173              		@ frame_needed = 0, uses_anonymous_args = 0
 174 0000 08B5     		push	{r3, lr}
 175              		.cfi_def_cfa_offset 8
 176              		.cfi_offset 3, -8
 177              		.cfi_offset 14, -4
  44:flash.c       ****   if((_readStatusReg() & WIP_BIT)) 
 178              		.loc 1 44 0
 179 0002 FFF7FEFF 		bl	_readStatusReg
 180              	.LVL17:
 181 0006 10F00100 		ands	r0, r0, #1
 182 000a 00D0     		beq	.L11
  45:flash.c       ****   {
  46:flash.c       ****     return 1;
ARM GAS  C:\Users\linar\AppData\Local\Temp\ccpLyYLJ.s 			page 5


 183              		.loc 1 46 0
 184 000c 0120     		movs	r0, #1
 185              	.L11:
  47:flash.c       ****   }
  48:flash.c       ****   else return 0;
  49:flash.c       **** }
 186              		.loc 1 49 0
 187 000e 08BD     		pop	{r3, pc}
 188              		.cfi_endproc
 189              	.LFE68:
 190              		.size	_checkWIP, .-_checkWIP
 191              		.section	.text._checkIfProtectedBitsSet,"ax",%progbits
 192              		.align	2
 193              		.global	_checkIfProtectedBitsSet
 194              		.thumb
 195              		.thumb_func
 196              		.type	_checkIfProtectedBitsSet, %function
 197              	_checkIfProtectedBitsSet:
 198              	.LFB69:
  50:flash.c       **** 
  51:flash.c       **** BOOL _checkIfProtectedBitsSet()
  52:flash.c       **** {
 199              		.loc 1 52 0
 200              		.cfi_startproc
 201              		@ args = 0, pretend = 0, frame = 0
 202              		@ frame_needed = 0, uses_anonymous_args = 0
 203 0000 08B5     		push	{r3, lr}
 204              		.cfi_def_cfa_offset 8
 205              		.cfi_offset 3, -8
 206              		.cfi_offset 14, -4
 207              	.LVL18:
  53:flash.c       ****   BOOL protected = 1;
  54:flash.c       **** 
  55:flash.c       ****   if(_readStatusReg() & 0x3C) protected = 1;
 208              		.loc 1 55 0
 209 0002 FFF7FEFF 		bl	_readStatusReg
 210              	.LVL19:
 211 0006 10F03C0F 		tst	r0, #60
 212 000a 01D0     		beq	.L15
 213 000c 0120     		movs	r0, #1
 214 000e 08BD     		pop	{r3, pc}
 215              	.L15:
  56:flash.c       ****   else protected = 0;
 216              		.loc 1 56 0
 217 0010 0020     		movs	r0, #0
 218              	.LVL20:
  57:flash.c       **** 
  58:flash.c       ****   return protected;
  59:flash.c       **** }
 219              		.loc 1 59 0
 220 0012 08BD     		pop	{r3, pc}
 221              		.cfi_endproc
 222              	.LFE69:
 223              		.size	_checkIfProtectedBitsSet, .-_checkIfProtectedBitsSet
 224              		.section	.text._checkIfProtected,"ax",%progbits
 225              		.align	2
 226              		.global	_checkIfProtected
ARM GAS  C:\Users\linar\AppData\Local\Temp\ccpLyYLJ.s 			page 6


 227              		.thumb
 228              		.thumb_func
 229              		.type	_checkIfProtected, %function
 230              	_checkIfProtected:
 231              	.LFB70:
  60:flash.c       **** 
  61:flash.c       **** BOOL _checkIfProtected(uint32 address)
  62:flash.c       **** {
 232              		.loc 1 62 0
 233              		.cfi_startproc
 234              		@ args = 0, pretend = 0, frame = 0
 235              		@ frame_needed = 0, uses_anonymous_args = 0
 236              	.LVL21:
 237 0000 10B5     		push	{r4, lr}
 238              		.cfi_def_cfa_offset 8
 239              		.cfi_offset 4, -8
 240              		.cfi_offset 14, -4
 241 0002 0446     		mov	r4, r0
 242              	.LVL22:
  63:flash.c       ****   BOOL protected = 1;
  64:flash.c       **** 
  65:flash.c       ****   uint8 bpb = (_readStatusReg() & 0x3C) >> 2;
 243              		.loc 1 65 0
 244 0004 FFF7FEFF 		bl	_readStatusReg
 245              	.LVL23:
  66:flash.c       **** 
  67:flash.c       ****   switch(bpb)
 246              		.loc 1 67 0
 247 0008 C0F38300 		ubfx	r0, r0, #2, #4
 248              	.LVL24:
 249 000c 0E28     		cmp	r0, #14
 250 000e 09D8     		bhi	.L18
 251 0010 DFE800F0 		tbb	[pc, r0]
 252              	.L20:
 253 0014 46       		.byte	(.L31-.L20)/2
 254 0015 0A       		.byte	(.L21-.L20)/2
 255 0016 11       		.byte	(.L22-.L20)/2
 256 0017 18       		.byte	(.L23-.L20)/2
 257 0018 1F       		.byte	(.L24-.L20)/2
 258 0019 26       		.byte	(.L25-.L20)/2
 259 001a 08       		.byte	(.L18-.L20)/2
 260 001b 08       		.byte	(.L18-.L20)/2
 261 001c 08       		.byte	(.L18-.L20)/2
 262 001d 08       		.byte	(.L18-.L20)/2
 263 001e 2D       		.byte	(.L26-.L20)/2
 264 001f 32       		.byte	(.L27-.L20)/2
 265 0020 37       		.byte	(.L28-.L20)/2
 266 0021 3C       		.byte	(.L29-.L20)/2
 267 0022 41       		.byte	(.L30-.L20)/2
 268 0023 00       		.p2align 1
 269              	.L18:
  68:flash.c       ****   {
  69:flash.c       ****     case 0:
  70:flash.c       ****       protected = 0;
  71:flash.c       ****     break;
  72:flash.c       ****     case 1:
  73:flash.c       ****       if( (address >= 0x1F0000) && (address <= 0x1FFFFF) ) protected = 1;
ARM GAS  C:\Users\linar\AppData\Local\Temp\ccpLyYLJ.s 			page 7


  74:flash.c       ****       else protected = 0;
  75:flash.c       ****     break;
  76:flash.c       ****     case 2:
  77:flash.c       ****       if( (address >= 0x1E0000) && (address <= 0x1FFFFF) ) protected = 1;
  78:flash.c       ****       else protected = 0;
  79:flash.c       ****     break;
  80:flash.c       ****     case 3:
  81:flash.c       ****       if( (address >= 0x1C0000) && (address <= 0x1FFFFF) ) protected = 1;
  82:flash.c       ****       else protected = 0;
  83:flash.c       ****     break;
  84:flash.c       ****     case 4:
  85:flash.c       ****       if( (address >= 0x180000) && (address <= 0x1FFFFF) ) protected = 1;
  86:flash.c       ****       else protected = 0;
  87:flash.c       ****     break;
  88:flash.c       ****     case 5:
  89:flash.c       ****       if( (address >= 0x100000) && (address <= 0x1FFFFF) ) protected = 1;
  90:flash.c       ****       else protected = 0;
  91:flash.c       ****     break;
  92:flash.c       ****     case 6:
  93:flash.c       ****     case 9:
  94:flash.c       ****       protected = 1;
  95:flash.c       ****     break;
  96:flash.c       ****     case 10:
  97:flash.c       ****       if( (address >= 0x000000) && (address <= 0x0F0000) ) protected = 1;
  98:flash.c       ****       else protected = 0;
  99:flash.c       ****     break;
 100:flash.c       ****     case 11:
 101:flash.c       ****       if( (address >= 0x000000) && (address <= 0x170000) ) protected = 1;
 102:flash.c       ****       else protected = 0;
 103:flash.c       ****     break;
 104:flash.c       ****     case 12:
 105:flash.c       ****       if( (address >= 0x000000) && (address <= 0x1B0000) ) protected = 1;
 106:flash.c       ****       else protected = 0;
 107:flash.c       ****     break;
 108:flash.c       ****     case 13:
 109:flash.c       ****       if( (address >= 0x000000) && (address <= 0x1D0000) ) protected = 1;
 110:flash.c       ****       else protected = 0;
 111:flash.c       ****     break;
 112:flash.c       ****     case 14:
 113:flash.c       ****       if( (address >= 0x000000) && (address <= 0x1E0000) ) protected = 1;
 114:flash.c       ****       else protected = 0;
 115:flash.c       ****     break;
 116:flash.c       ****     case 15:
 117:flash.c       ****       protected = 1;
 118:flash.c       ****     break;
 119:flash.c       **** 
 120:flash.c       ****     default:
 121:flash.c       ****       return protected = 1;
 270              		.loc 1 121 0
 271 0024 0120     		movs	r0, #1
 272 0026 10BD     		pop	{r4, pc}
 273              	.LVL25:
 274              	.L21:
  73:flash.c       ****       else protected = 0;
 275              		.loc 1 73 0
 276 0028 A4F5F814 		sub	r4, r4, #2031616
 277              	.LVL26:
ARM GAS  C:\Users\linar\AppData\Local\Temp\ccpLyYLJ.s 			page 8


 278 002c B4F5803F 		cmp	r4, #65536
 279 0030 38D2     		bcs	.L32
 280 0032 0120     		movs	r0, #1
 281 0034 10BD     		pop	{r4, pc}
 282              	.LVL27:
 283              	.L22:
  77:flash.c       ****       else protected = 0;
 284              		.loc 1 77 0
 285 0036 A4F5F014 		sub	r4, r4, #1966080
 286              	.LVL28:
 287 003a B4F5003F 		cmp	r4, #131072
 288 003e 33D2     		bcs	.L33
 289 0040 0120     		movs	r0, #1
 290 0042 10BD     		pop	{r4, pc}
 291              	.LVL29:
 292              	.L23:
  81:flash.c       ****       else protected = 0;
 293              		.loc 1 81 0
 294 0044 A4F5E014 		sub	r4, r4, #1835008
 295              	.LVL30:
 296 0048 B4F5802F 		cmp	r4, #262144
 297 004c 2ED2     		bcs	.L34
 298 004e 0120     		movs	r0, #1
 299 0050 10BD     		pop	{r4, pc}
 300              	.LVL31:
 301              	.L24:
  85:flash.c       ****       else protected = 0;
 302              		.loc 1 85 0
 303 0052 A4F5C014 		sub	r4, r4, #1572864
 304              	.LVL32:
 305 0056 B4F5002F 		cmp	r4, #524288
 306 005a 29D2     		bcs	.L35
 307 005c 0120     		movs	r0, #1
 308 005e 10BD     		pop	{r4, pc}
 309              	.LVL33:
 310              	.L25:
  89:flash.c       ****       else protected = 0;
 311              		.loc 1 89 0
 312 0060 A4F58014 		sub	r4, r4, #1048576
 313              	.LVL34:
 314 0064 B4F5801F 		cmp	r4, #1048576
 315 0068 24D2     		bcs	.L36
 316 006a 0120     		movs	r0, #1
 317 006c 10BD     		pop	{r4, pc}
 318              	.LVL35:
 319              	.L26:
  97:flash.c       ****       else protected = 0;
 320              		.loc 1 97 0
 321 006e B4F5702F 		cmp	r4, #983040
 322 0072 21D8     		bhi	.L37
 323 0074 0120     		movs	r0, #1
 324 0076 10BD     		pop	{r4, pc}
 325              	.LVL36:
 326              	.L27:
 101:flash.c       ****       else protected = 0;
 327              		.loc 1 101 0
 328 0078 B4F5B81F 		cmp	r4, #1507328
ARM GAS  C:\Users\linar\AppData\Local\Temp\ccpLyYLJ.s 			page 9


 329 007c 1ED8     		bhi	.L38
 330 007e 0120     		movs	r0, #1
 331 0080 10BD     		pop	{r4, pc}
 332              	.LVL37:
 333              	.L28:
 105:flash.c       ****       else protected = 0;
 334              		.loc 1 105 0
 335 0082 B4F5D81F 		cmp	r4, #1769472
 336 0086 1BD8     		bhi	.L39
 337 0088 0120     		movs	r0, #1
 338 008a 10BD     		pop	{r4, pc}
 339              	.LVL38:
 340              	.L29:
 109:flash.c       ****       else protected = 0;
 341              		.loc 1 109 0
 342 008c B4F5E81F 		cmp	r4, #1900544
 343 0090 18D8     		bhi	.L40
 344 0092 0120     		movs	r0, #1
 345 0094 10BD     		pop	{r4, pc}
 346              	.LVL39:
 347              	.L30:
 113:flash.c       ****       else protected = 0;
 348              		.loc 1 113 0
 349 0096 B4F5F01F 		cmp	r4, #1966080
 350 009a 15D8     		bhi	.L41
 351 009c 0120     		movs	r0, #1
 352 009e 10BD     		pop	{r4, pc}
 353              	.LVL40:
 354              	.L31:
  70:flash.c       ****     break;
 355              		.loc 1 70 0
 356 00a0 0020     		movs	r0, #0
 357 00a2 10BD     		pop	{r4, pc}
 358              	.LVL41:
 359              	.L32:
  74:flash.c       ****     break;
 360              		.loc 1 74 0
 361 00a4 0020     		movs	r0, #0
 362 00a6 10BD     		pop	{r4, pc}
 363              	.LVL42:
 364              	.L33:
  78:flash.c       ****     break;
 365              		.loc 1 78 0
 366 00a8 0020     		movs	r0, #0
 367 00aa 10BD     		pop	{r4, pc}
 368              	.LVL43:
 369              	.L34:
  82:flash.c       ****     break;
 370              		.loc 1 82 0
 371 00ac 0020     		movs	r0, #0
 372 00ae 10BD     		pop	{r4, pc}
 373              	.LVL44:
 374              	.L35:
  86:flash.c       ****     break;
 375              		.loc 1 86 0
 376 00b0 0020     		movs	r0, #0
 377 00b2 10BD     		pop	{r4, pc}
ARM GAS  C:\Users\linar\AppData\Local\Temp\ccpLyYLJ.s 			page 10


 378              	.LVL45:
 379              	.L36:
  90:flash.c       ****     break;
 380              		.loc 1 90 0
 381 00b4 0020     		movs	r0, #0
 382 00b6 10BD     		pop	{r4, pc}
 383              	.LVL46:
 384              	.L37:
  98:flash.c       ****     break;
 385              		.loc 1 98 0
 386 00b8 0020     		movs	r0, #0
 387 00ba 10BD     		pop	{r4, pc}
 388              	.LVL47:
 389              	.L38:
 102:flash.c       ****     break;
 390              		.loc 1 102 0
 391 00bc 0020     		movs	r0, #0
 392 00be 10BD     		pop	{r4, pc}
 393              	.LVL48:
 394              	.L39:
 106:flash.c       ****     break;
 395              		.loc 1 106 0
 396 00c0 0020     		movs	r0, #0
 397 00c2 10BD     		pop	{r4, pc}
 398              	.LVL49:
 399              	.L40:
 110:flash.c       ****     break;
 400              		.loc 1 110 0
 401 00c4 0020     		movs	r0, #0
 402 00c6 10BD     		pop	{r4, pc}
 403              	.LVL50:
 404              	.L41:
 114:flash.c       ****     break;
 405              		.loc 1 114 0
 406 00c8 0020     		movs	r0, #0
 122:flash.c       ****     break;
 123:flash.c       ****   }
 124:flash.c       **** 
 125:flash.c       ****   return protected;
 126:flash.c       **** }
 407              		.loc 1 126 0
 408 00ca 10BD     		pop	{r4, pc}
 409              		.cfi_endproc
 410              	.LFE70:
 411              		.size	_checkIfProtected, .-_checkIfProtected
 412              		.section	.text.writeStatusReg,"ax",%progbits
 413              		.align	2
 414              		.global	writeStatusReg
 415              		.thumb
 416              		.thumb_func
 417              		.type	writeStatusReg, %function
 418              	writeStatusReg:
 419              	.LFB71:
 127:flash.c       **** 
 128:flash.c       **** cmdStatusTypedef writeStatusReg(uint8 code)
 129:flash.c       **** {
 420              		.loc 1 129 0
ARM GAS  C:\Users\linar\AppData\Local\Temp\ccpLyYLJ.s 			page 11


 421              		.cfi_startproc
 422              		@ args = 0, pretend = 0, frame = 0
 423              		@ frame_needed = 0, uses_anonymous_args = 0
 424              	.LVL51:
 130:flash.c       ****   cmdStatusTypedef status = ERROR;
 131:flash.c       **** 
 132:flash.c       ****   if(code & READ_ONLY_BITS) return INVALID_INPUT;
 425              		.loc 1 132 0
 426 0000 10F0430F 		tst	r0, #67
 427 0004 1AD1     		bne	.L45
 129:flash.c       ****   cmdStatusTypedef status = ERROR;
 428              		.loc 1 129 0
 429 0006 10B5     		push	{r4, lr}
 430              		.cfi_def_cfa_offset 8
 431              		.cfi_offset 4, -8
 432              		.cfi_offset 14, -4
 433 0008 0446     		mov	r4, r0
 133:flash.c       ****   if(_checkWIP()) return BUSY;
 434              		.loc 1 133 0
 435 000a FFF7FEFF 		bl	_checkWIP
 436              	.LVL52:
 437 000e B8B9     		cbnz	r0, .L46
 134:flash.c       **** 
 135:flash.c       ****   SPIM_1_ClearRxBuffer();
 438              		.loc 1 135 0
 439 0010 FFF7FEFF 		bl	SPIM_1_ClearRxBuffer
 440              	.LVL53:
 136:flash.c       **** 
 137:flash.c       ****   cs_Write(0);
 441              		.loc 1 137 0
 442 0014 0020     		movs	r0, #0
 443 0016 FFF7FEFF 		bl	cs_Write
 444              	.LVL54:
 138:flash.c       ****   _sendCmd(WRITE_STATUS_REG);
 445              		.loc 1 138 0
 446 001a 0120     		movs	r0, #1
 447 001c FFF7FEFF 		bl	_sendCmd
 448              	.LVL55:
 139:flash.c       ****   _sendCmd(code);
 449              		.loc 1 139 0
 450 0020 2046     		mov	r0, r4
 451 0022 FFF7FEFF 		bl	_sendCmd
 452              	.LVL56:
 140:flash.c       ****   cs_Write(1);
 453              		.loc 1 140 0
 454 0026 0120     		movs	r0, #1
 455 0028 FFF7FEFF 		bl	cs_Write
 456              	.LVL57:
 141:flash.c       **** 
 142:flash.c       ****   if( (_readStatusReg() & RW_BITS) == code)
 457              		.loc 1 142 0
 458 002c FFF7FEFF 		bl	_readStatusReg
 459              	.LVL58:
 460 0030 00F0BC00 		and	r0, r0, #188
 461 0034 A042     		cmp	r0, r4
 462 0036 05D1     		bne	.L47
 143:flash.c       ****   {
ARM GAS  C:\Users\linar\AppData\Local\Temp\ccpLyYLJ.s 			page 12


 144:flash.c       ****     status = OK;
 463              		.loc 1 144 0
 464 0038 0020     		movs	r0, #0
 465 003a 10BD     		pop	{r4, pc}
 466              	.LVL59:
 467              	.L45:
 468              		.cfi_def_cfa_offset 0
 469              		.cfi_restore 4
 470              		.cfi_restore 14
 132:flash.c       ****   if(_checkWIP()) return BUSY;
 471              		.loc 1 132 0
 472 003c 0220     		movs	r0, #2
 473              	.LVL60:
 145:flash.c       ****   }
 146:flash.c       ****   else
 147:flash.c       ****   {
 148:flash.c       ****     status = ERROR;
 149:flash.c       ****   }
 150:flash.c       **** 
 151:flash.c       ****   return status;
 152:flash.c       **** }
 474              		.loc 1 152 0
 475 003e 7047     		bx	lr
 476              	.L46:
 477              		.cfi_def_cfa_offset 8
 478              		.cfi_offset 4, -8
 479              		.cfi_offset 14, -4
 133:flash.c       **** 
 480              		.loc 1 133 0
 481 0040 0320     		movs	r0, #3
 482 0042 10BD     		pop	{r4, pc}
 483              	.L47:
 148:flash.c       ****   }
 484              		.loc 1 148 0
 485 0044 0120     		movs	r0, #1
 486              		.loc 1 152 0
 487 0046 10BD     		pop	{r4, pc}
 488              		.cfi_endproc
 489              	.LFE71:
 490              		.size	writeStatusReg, .-writeStatusReg
 491              		.section	.text.readData,"ax",%progbits
 492              		.align	2
 493              		.global	readData
 494              		.thumb
 495              		.thumb_func
 496              		.type	readData, %function
 497              	readData:
 498              	.LFB72:
 153:flash.c       **** 
 154:flash.c       **** cmdStatusTypedef readData(uint32 address, uint8* buff, uint32 size)
 155:flash.c       **** {
 499              		.loc 1 155 0
 500              		.cfi_startproc
 501              		@ args = 0, pretend = 0, frame = 24
 502              		@ frame_needed = 0, uses_anonymous_args = 0
 503              	.LVL61:
 504 0000 2DE9F041 		push	{r4, r5, r6, r7, r8, lr}
ARM GAS  C:\Users\linar\AppData\Local\Temp\ccpLyYLJ.s 			page 13


 505              		.cfi_def_cfa_offset 24
 506              		.cfi_offset 4, -24
 507              		.cfi_offset 5, -20
 508              		.cfi_offset 6, -16
 509              		.cfi_offset 7, -12
 510              		.cfi_offset 8, -8
 511              		.cfi_offset 14, -4
 512 0004 86B0     		sub	sp, sp, #24
 513              		.cfi_def_cfa_offset 48
 514 0006 0E46     		mov	r6, r1
 515 0008 1546     		mov	r5, r2
 516              	.LVL62:
 156:flash.c       ****   cmdStatusTypedef status = ERROR;
 157:flash.c       ****   uint8 addr1 = (address & 0xFF0000) >> 16;
 517              		.loc 1 157 0
 518 000a C0F30748 		ubfx	r8, r0, #16, #8
 519              	.LVL63:
 158:flash.c       ****   uint8 addr2 = (address & 0xFF00) >> 8;
 520              		.loc 1 158 0
 521 000e C0F30727 		ubfx	r7, r0, #8, #8
 522              	.LVL64:
 159:flash.c       ****   uint8 addr3 = address & 0xFF;
 523              		.loc 1 159 0
 524 0012 C4B2     		uxtb	r4, r0
 525              	.LVL65:
 160:flash.c       **** 
 161:flash.c       ****   uint8 sendbuff[20];
 162:flash.c       ****   memset(sendbuff, 0, 20);
 526              		.loc 1 162 0
 527 0014 0023     		movs	r3, #0
 528 0016 0193     		str	r3, [sp, #4]
 529 0018 0293     		str	r3, [sp, #8]
 530 001a 0393     		str	r3, [sp, #12]
 531 001c 0493     		str	r3, [sp, #16]
 532 001e 0593     		str	r3, [sp, #20]
 163:flash.c       **** 
 164:flash.c       ****   if(_checkWIP()) return BUSY;
 533              		.loc 1 164 0
 534 0020 FFF7FEFF 		bl	_checkWIP
 535              	.LVL66:
 536 0024 40BB     		cbnz	r0, .L53
 165:flash.c       **** 
 166:flash.c       ****   SPIM_1_ClearRxBuffer();
 537              		.loc 1 166 0
 538 0026 FFF7FEFF 		bl	SPIM_1_ClearRxBuffer
 539              	.LVL67:
 167:flash.c       **** 
 168:flash.c       ****   cs_Write(0);
 540              		.loc 1 168 0
 541 002a 0020     		movs	r0, #0
 542 002c FFF7FEFF 		bl	cs_Write
 543              	.LVL68:
 169:flash.c       ****   _sendCmd(READ_DATA);
 544              		.loc 1 169 0
 545 0030 0320     		movs	r0, #3
 546 0032 FFF7FEFF 		bl	_sendCmd
 547              	.LVL69:
ARM GAS  C:\Users\linar\AppData\Local\Temp\ccpLyYLJ.s 			page 14


 170:flash.c       ****   SPIM_1_ReadRxData();
 548              		.loc 1 170 0
 549 0036 FFF7FEFF 		bl	SPIM_1_ReadRxData
 550              	.LVL70:
 171:flash.c       ****   _sendCmd(addr1);
 551              		.loc 1 171 0
 552 003a 4046     		mov	r0, r8
 553 003c FFF7FEFF 		bl	_sendCmd
 554              	.LVL71:
 172:flash.c       ****   SPIM_1_ReadRxData();
 555              		.loc 1 172 0
 556 0040 FFF7FEFF 		bl	SPIM_1_ReadRxData
 557              	.LVL72:
 173:flash.c       ****   _sendCmd(addr2);
 558              		.loc 1 173 0
 559 0044 3846     		mov	r0, r7
 560 0046 FFF7FEFF 		bl	_sendCmd
 561              	.LVL73:
 174:flash.c       ****   SPIM_1_ReadRxData();
 562              		.loc 1 174 0
 563 004a FFF7FEFF 		bl	SPIM_1_ReadRxData
 564              	.LVL74:
 175:flash.c       ****   _sendCmd(addr3);
 565              		.loc 1 175 0
 566 004e 2046     		mov	r0, r4
 567 0050 FFF7FEFF 		bl	_sendCmd
 568              	.LVL75:
 176:flash.c       ****   SPIM_1_ReadRxData();
 569              		.loc 1 176 0
 570 0054 FFF7FEFF 		bl	SPIM_1_ReadRxData
 571              	.LVL76:
 572              	.LBB2:
 177:flash.c       **** 
 178:flash.c       ****   for(uint32 i = 0; i < size; i++)
 573              		.loc 1 178 0
 574 0058 0024     		movs	r4, #0
 575              	.LVL77:
 576 005a 06E0     		b	.L51
 577              	.LVL78:
 578              	.L52:
 179:flash.c       ****   {
 180:flash.c       ****     _sendCmd(SHIFT_OUT);
 579              		.loc 1 180 0 discriminator 3
 580 005c 0020     		movs	r0, #0
 581 005e FFF7FEFF 		bl	_sendCmd
 582              	.LVL79:
 181:flash.c       ****     buff[i] = SPIM_1_ReadRxData();
 583              		.loc 1 181 0 discriminator 3
 584 0062 FFF7FEFF 		bl	SPIM_1_ReadRxData
 585              	.LVL80:
 586 0066 3055     		strb	r0, [r6, r4]
 178:flash.c       ****   {
 587              		.loc 1 178 0 discriminator 3
 588 0068 0134     		adds	r4, r4, #1
 589              	.LVL81:
 590              	.L51:
 178:flash.c       ****   {
ARM GAS  C:\Users\linar\AppData\Local\Temp\ccpLyYLJ.s 			page 15


 591              		.loc 1 178 0 is_stmt 0 discriminator 1
 592 006a AC42     		cmp	r4, r5
 593 006c F6D3     		bcc	.L52
 594              	.LBE2:
 182:flash.c       ****   }
 183:flash.c       ****   cs_Write(1);
 595              		.loc 1 183 0 is_stmt 1
 596 006e 0120     		movs	r0, #1
 597 0070 FFF7FEFF 		bl	cs_Write
 598              	.LVL82:
 184:flash.c       ****   status = OK;
 185:flash.c       **** /*    
 186:flash.c       ****   buffSize = SPIM_1_GetRxBufferSize() - 4;
 187:flash.c       **** 
 188:flash.c       ****         sprintf((char*)sendbuff, "Buffsize: %d \r\n", buffSize);
 189:flash.c       ****         //sprintf((char*)sendbuff, "%d ", rand);
 190:flash.c       ****         USBUART_1_PutData(sendbuff, 20);
 191:flash.c       ****         memset(sendbuff, 0, 20);
 192:flash.c       ****         
 193:flash.c       ****         sprintf((char*)sendbuff, "size: %d \r\n", size);
 194:flash.c       ****         //sprintf((char*)sendbuff, "%d ", rand);
 195:flash.c       ****         USBUART_1_PutData(sendbuff, 20);
 196:flash.c       ****         memset(sendbuff, 0, 20);
 197:flash.c       ****         
 198:flash.c       ****   if( buffSize != size) return ERROR;
 199:flash.c       ****   else status = OK;
 200:flash.c       ****    
 201:flash.c       ****   // Dummy read
 202:flash.c       ****   for(uint8 i = 0; i < 4; i++)
 203:flash.c       ****   {
 204:flash.c       ****     SPIM_1_ReadRxData();
 205:flash.c       ****   }
 206:flash.c       **** 
 207:flash.c       ****   for(uint32 i = 0; i < buffSize; i++)
 208:flash.c       ****   {
 209:flash.c       ****     buff[i] = SPIM_1_ReadRxData();
 210:flash.c       ****   }
 211:flash.c       **** */
 212:flash.c       ****   return status;
 599              		.loc 1 212 0
 600 0074 0020     		movs	r0, #0
 601 0076 00E0     		b	.L50
 602              	.LVL83:
 603              	.L53:
 164:flash.c       **** 
 604              		.loc 1 164 0
 605 0078 0320     		movs	r0, #3
 606              	.LVL84:
 607              	.L50:
 213:flash.c       **** }
 608              		.loc 1 213 0
 609 007a 06B0     		add	sp, sp, #24
 610              		.cfi_def_cfa_offset 24
 611              		@ sp needed
 612 007c BDE8F081 		pop	{r4, r5, r6, r7, r8, pc}
 613              		.cfi_endproc
 614              	.LFE72:
ARM GAS  C:\Users\linar\AppData\Local\Temp\ccpLyYLJ.s 			page 16


 615              		.size	readData, .-readData
 616              		.section	.text.pageProgram,"ax",%progbits
 617              		.align	2
 618              		.global	pageProgram
 619              		.thumb
 620              		.thumb_func
 621              		.type	pageProgram, %function
 622              	pageProgram:
 623              	.LFB73:
 214:flash.c       **** /* FAST READ */
 215:flash.c       **** //
 216:flash.c       **** //
 217:flash.c       **** //
 218:flash.c       **** //
 219:flash.c       **** 
 220:flash.c       **** /* FAST READ DUAL OUTPUT */
 221:flash.c       **** //
 222:flash.c       **** //
 223:flash.c       **** //
 224:flash.c       **** //
 225:flash.c       **** 
 226:flash.c       **** cmdStatusTypedef pageProgram(uint32 address, uint8* buff, uint32 size)
 227:flash.c       **** {
 624              		.loc 1 227 0
 625              		.cfi_startproc
 626              		@ args = 0, pretend = 0, frame = 0
 627              		@ frame_needed = 0, uses_anonymous_args = 0
 628              	.LVL85:
 228:flash.c       ****   cmdStatusTypedef status = ERROR;
 229:flash.c       **** 
 230:flash.c       ****   if((size - 1) > 255) return INVALID_INPUT;
 629              		.loc 1 230 0
 630 0000 531E     		subs	r3, r2, #1
 631 0002 FF2B     		cmp	r3, #255
 632 0004 30D8     		bhi	.L59
 227:flash.c       ****   cmdStatusTypedef status = ERROR;
 633              		.loc 1 227 0
 634 0006 2DE9F041 		push	{r4, r5, r6, r7, r8, lr}
 635              		.cfi_def_cfa_offset 24
 636              		.cfi_offset 4, -24
 637              		.cfi_offset 5, -20
 638              		.cfi_offset 6, -16
 639              		.cfi_offset 7, -12
 640              		.cfi_offset 8, -8
 641              		.cfi_offset 14, -4
 642 000a 0646     		mov	r6, r0
 643 000c 0D46     		mov	r5, r1
 644 000e 1446     		mov	r4, r2
 231:flash.c       ****   if(_checkWIP()) return BUSY;
 645              		.loc 1 231 0
 646 0010 FFF7FEFF 		bl	_checkWIP
 647              	.LVL86:
 648 0014 50BB     		cbnz	r0, .L60
 232:flash.c       ****   if(_checkIfProtected(address)) return PROTECTED;
 649              		.loc 1 232 0
 650 0016 3046     		mov	r0, r6
 651 0018 FFF7FEFF 		bl	_checkIfProtected
ARM GAS  C:\Users\linar\AppData\Local\Temp\ccpLyYLJ.s 			page 17


 652              	.LVL87:
 653 001c 48BB     		cbnz	r0, .L61
 233:flash.c       **** 
 234:flash.c       ****   uint8 addr1 = (address & 0xFF0000) >> 16;
 654              		.loc 1 234 0
 655 001e C6F30748 		ubfx	r8, r6, #16, #8
 656              	.LVL88:
 235:flash.c       ****   uint8 addr2 = (address & 0xFF00) >> 8;
 657              		.loc 1 235 0
 658 0022 C6F30727 		ubfx	r7, r6, #8, #8
 659              	.LVL89:
 236:flash.c       ****   uint8 addr3 = address & 0xFF;
 660              		.loc 1 236 0
 661 0026 F6B2     		uxtb	r6, r6
 662              	.LVL90:
 237:flash.c       **** 
 238:flash.c       ****   _writeEnable();
 663              		.loc 1 238 0
 664 0028 FFF7FEFF 		bl	_writeEnable
 665              	.LVL91:
 239:flash.c       ****   cs_Write(0);
 666              		.loc 1 239 0
 667 002c 0020     		movs	r0, #0
 668 002e FFF7FEFF 		bl	cs_Write
 669              	.LVL92:
 240:flash.c       ****   _sendCmd(PAGE_PROG);
 670              		.loc 1 240 0
 671 0032 0220     		movs	r0, #2
 672 0034 FFF7FEFF 		bl	_sendCmd
 673              	.LVL93:
 241:flash.c       ****   _sendCmd(addr1);
 674              		.loc 1 241 0
 675 0038 4046     		mov	r0, r8
 676 003a FFF7FEFF 		bl	_sendCmd
 677              	.LVL94:
 242:flash.c       ****   _sendCmd(addr2);
 678              		.loc 1 242 0
 679 003e 3846     		mov	r0, r7
 680 0040 FFF7FEFF 		bl	_sendCmd
 681              	.LVL95:
 243:flash.c       ****   _sendCmd(addr3);
 682              		.loc 1 243 0
 683 0044 3046     		mov	r0, r6
 684 0046 FFF7FEFF 		bl	_sendCmd
 685              	.LVL96:
 686              	.LBB3:
 244:flash.c       ****   for(uint32 i = 0; i < size; i++)
 687              		.loc 1 244 0
 688 004a 0026     		movs	r6, #0
 689              	.LVL97:
 690 004c 04E0     		b	.L57
 691              	.LVL98:
 692              	.L58:
 245:flash.c       ****   {
 246:flash.c       ****     _sendCmd(*buff);
 693              		.loc 1 246 0 discriminator 3
 694 004e 15F8010B 		ldrb	r0, [r5], #1	@ zero_extendqisi2
ARM GAS  C:\Users\linar\AppData\Local\Temp\ccpLyYLJ.s 			page 18


 695              	.LVL99:
 696 0052 FFF7FEFF 		bl	_sendCmd
 697              	.LVL100:
 244:flash.c       ****   for(uint32 i = 0; i < size; i++)
 698              		.loc 1 244 0 discriminator 3
 699 0056 0136     		adds	r6, r6, #1
 700              	.LVL101:
 701              	.L57:
 244:flash.c       ****   for(uint32 i = 0; i < size; i++)
 702              		.loc 1 244 0 is_stmt 0 discriminator 1
 703 0058 A642     		cmp	r6, r4
 704 005a F8D3     		bcc	.L58
 705              	.LBE3:
 247:flash.c       ****     buff++;
 248:flash.c       ****   }
 249:flash.c       ****   cs_Write(1);
 706              		.loc 1 249 0 is_stmt 1
 707 005c 0120     		movs	r0, #1
 708 005e FFF7FEFF 		bl	cs_Write
 709              	.LVL102:
 250:flash.c       **** 
 251:flash.c       ****   status = OK;
 252:flash.c       **** 
 253:flash.c       ****   return status;
 710              		.loc 1 253 0
 711 0062 0020     		movs	r0, #0
 712 0064 BDE8F081 		pop	{r4, r5, r6, r7, r8, pc}
 713              	.LVL103:
 714              	.L59:
 715              		.cfi_def_cfa_offset 0
 716              		.cfi_restore 4
 717              		.cfi_restore 5
 718              		.cfi_restore 6
 719              		.cfi_restore 7
 720              		.cfi_restore 8
 721              		.cfi_restore 14
 230:flash.c       ****   if(_checkWIP()) return BUSY;
 722              		.loc 1 230 0
 723 0068 0220     		movs	r0, #2
 724              	.LVL104:
 254:flash.c       **** }
 725              		.loc 1 254 0
 726 006a 7047     		bx	lr
 727              	.LVL105:
 728              	.L60:
 729              		.cfi_def_cfa_offset 24
 730              		.cfi_offset 4, -24
 731              		.cfi_offset 5, -20
 732              		.cfi_offset 6, -16
 733              		.cfi_offset 7, -12
 734              		.cfi_offset 8, -8
 735              		.cfi_offset 14, -4
 231:flash.c       ****   if(_checkIfProtected(address)) return PROTECTED;
 736              		.loc 1 231 0
 737 006c 0320     		movs	r0, #3
 738 006e BDE8F081 		pop	{r4, r5, r6, r7, r8, pc}
 739              	.LVL106:
ARM GAS  C:\Users\linar\AppData\Local\Temp\ccpLyYLJ.s 			page 19


 740              	.L61:
 232:flash.c       **** 
 741              		.loc 1 232 0
 742 0072 0420     		movs	r0, #4
 743              		.loc 1 254 0
 744 0074 BDE8F081 		pop	{r4, r5, r6, r7, r8, pc}
 745              		.cfi_endproc
 746              	.LFE73:
 747              		.size	pageProgram, .-pageProgram
 748              		.section	.text.sectorErase,"ax",%progbits
 749              		.align	2
 750              		.global	sectorErase
 751              		.thumb
 752              		.thumb_func
 753              		.type	sectorErase, %function
 754              	sectorErase:
 755              	.LFB74:
 255:flash.c       **** 
 256:flash.c       **** cmdStatusTypedef sectorErase(uint32 address)
 257:flash.c       **** {
 756              		.loc 1 257 0
 757              		.cfi_startproc
 758              		@ args = 0, pretend = 0, frame = 0
 759              		@ frame_needed = 0, uses_anonymous_args = 0
 760              	.LVL107:
 761 0000 70B5     		push	{r4, r5, r6, lr}
 762              		.cfi_def_cfa_offset 16
 763              		.cfi_offset 4, -16
 764              		.cfi_offset 5, -12
 765              		.cfi_offset 6, -8
 766              		.cfi_offset 14, -4
 767 0002 0446     		mov	r4, r0
 768              	.LVL108:
 258:flash.c       ****   cmdStatusTypedef status = ERROR;
 259:flash.c       **** 
 260:flash.c       ****   if(_checkWIP()) return BUSY;
 769              		.loc 1 260 0
 770 0004 FFF7FEFF 		bl	_checkWIP
 771              	.LVL109:
 772 0008 F0B9     		cbnz	r0, .L65
 261:flash.c       ****   if(_checkIfProtected(address)) return PROTECTED;
 773              		.loc 1 261 0
 774 000a 2046     		mov	r0, r4
 775 000c FFF7FEFF 		bl	_checkIfProtected
 776              	.LVL110:
 777 0010 E0B9     		cbnz	r0, .L66
 262:flash.c       **** 
 263:flash.c       ****   uint8 addr1 = (address & 0xFF0000) >> 16;
 778              		.loc 1 263 0
 779 0012 C4F30746 		ubfx	r6, r4, #16, #8
 780              	.LVL111:
 264:flash.c       ****   uint8 addr2 = (address & 0xFF00) >> 8;
 781              		.loc 1 264 0
 782 0016 C4F30725 		ubfx	r5, r4, #8, #8
 783              	.LVL112:
 265:flash.c       ****   uint8 addr3 = address & 0xFF;
 784              		.loc 1 265 0
ARM GAS  C:\Users\linar\AppData\Local\Temp\ccpLyYLJ.s 			page 20


 785 001a E4B2     		uxtb	r4, r4
 786              	.LVL113:
 266:flash.c       **** 
 267:flash.c       ****   _writeEnable();
 787              		.loc 1 267 0
 788 001c FFF7FEFF 		bl	_writeEnable
 789              	.LVL114:
 268:flash.c       ****   cs_Write(0);
 790              		.loc 1 268 0
 791 0020 0020     		movs	r0, #0
 792 0022 FFF7FEFF 		bl	cs_Write
 793              	.LVL115:
 269:flash.c       ****   _sendCmd(SECTOR_ERASE);
 794              		.loc 1 269 0
 795 0026 2020     		movs	r0, #32
 796 0028 FFF7FEFF 		bl	_sendCmd
 797              	.LVL116:
 270:flash.c       ****   _sendCmd(addr1);
 798              		.loc 1 270 0
 799 002c 3046     		mov	r0, r6
 800 002e FFF7FEFF 		bl	_sendCmd
 801              	.LVL117:
 271:flash.c       ****   _sendCmd(addr2);
 802              		.loc 1 271 0
 803 0032 2846     		mov	r0, r5
 804 0034 FFF7FEFF 		bl	_sendCmd
 805              	.LVL118:
 272:flash.c       ****   _sendCmd(addr3);
 806              		.loc 1 272 0
 807 0038 2046     		mov	r0, r4
 808 003a FFF7FEFF 		bl	_sendCmd
 809              	.LVL119:
 273:flash.c       ****   cs_Write(1);
 810              		.loc 1 273 0
 811 003e 0120     		movs	r0, #1
 812 0040 FFF7FEFF 		bl	cs_Write
 813              	.LVL120:
 274:flash.c       **** 
 275:flash.c       ****   status = OK;
 276:flash.c       **** 
 277:flash.c       ****   return status;
 814              		.loc 1 277 0
 815 0044 0020     		movs	r0, #0
 816 0046 70BD     		pop	{r4, r5, r6, pc}
 817              	.LVL121:
 818              	.L65:
 260:flash.c       ****   if(_checkIfProtected(address)) return PROTECTED;
 819              		.loc 1 260 0
 820 0048 0320     		movs	r0, #3
 821 004a 70BD     		pop	{r4, r5, r6, pc}
 822              	.LVL122:
 823              	.L66:
 261:flash.c       **** 
 824              		.loc 1 261 0
 825 004c 0420     		movs	r0, #4
 278:flash.c       **** }
 826              		.loc 1 278 0
ARM GAS  C:\Users\linar\AppData\Local\Temp\ccpLyYLJ.s 			page 21


 827 004e 70BD     		pop	{r4, r5, r6, pc}
 828              		.cfi_endproc
 829              	.LFE74:
 830              		.size	sectorErase, .-sectorErase
 831              		.section	.text.blockErase,"ax",%progbits
 832              		.align	2
 833              		.global	blockErase
 834              		.thumb
 835              		.thumb_func
 836              		.type	blockErase, %function
 837              	blockErase:
 838              	.LFB75:
 279:flash.c       **** 
 280:flash.c       **** cmdStatusTypedef blockErase(uint32 address)
 281:flash.c       **** {
 839              		.loc 1 281 0
 840              		.cfi_startproc
 841              		@ args = 0, pretend = 0, frame = 0
 842              		@ frame_needed = 0, uses_anonymous_args = 0
 843              	.LVL123:
 844 0000 70B5     		push	{r4, r5, r6, lr}
 845              		.cfi_def_cfa_offset 16
 846              		.cfi_offset 4, -16
 847              		.cfi_offset 5, -12
 848              		.cfi_offset 6, -8
 849              		.cfi_offset 14, -4
 850 0002 0446     		mov	r4, r0
 851              	.LVL124:
 282:flash.c       ****   cmdStatusTypedef status = ERROR;
 283:flash.c       **** 
 284:flash.c       ****   if(_checkWIP()) return BUSY;
 852              		.loc 1 284 0
 853 0004 FFF7FEFF 		bl	_checkWIP
 854              	.LVL125:
 855 0008 F0B9     		cbnz	r0, .L70
 285:flash.c       ****   if(_checkIfProtected(address)) return PROTECTED;
 856              		.loc 1 285 0
 857 000a 2046     		mov	r0, r4
 858 000c FFF7FEFF 		bl	_checkIfProtected
 859              	.LVL126:
 860 0010 E0B9     		cbnz	r0, .L71
 286:flash.c       **** 
 287:flash.c       ****   uint8 addr1 = (address & 0xFF0000) >> 16;
 861              		.loc 1 287 0
 862 0012 C4F30746 		ubfx	r6, r4, #16, #8
 863              	.LVL127:
 288:flash.c       ****   uint8 addr2 = (address & 0xFF00) >> 8;
 864              		.loc 1 288 0
 865 0016 C4F30725 		ubfx	r5, r4, #8, #8
 866              	.LVL128:
 289:flash.c       ****   uint8 addr3 = address & 0xFF;
 867              		.loc 1 289 0
 868 001a E4B2     		uxtb	r4, r4
 869              	.LVL129:
 290:flash.c       **** 
 291:flash.c       ****   _writeEnable();
 870              		.loc 1 291 0
ARM GAS  C:\Users\linar\AppData\Local\Temp\ccpLyYLJ.s 			page 22


 871 001c FFF7FEFF 		bl	_writeEnable
 872              	.LVL130:
 292:flash.c       ****   cs_Write(0);
 873              		.loc 1 292 0
 874 0020 0020     		movs	r0, #0
 875 0022 FFF7FEFF 		bl	cs_Write
 876              	.LVL131:
 293:flash.c       ****   _sendCmd(BLK_ERASE);
 877              		.loc 1 293 0
 878 0026 D820     		movs	r0, #216
 879 0028 FFF7FEFF 		bl	_sendCmd
 880              	.LVL132:
 294:flash.c       ****   _sendCmd(addr1);
 881              		.loc 1 294 0
 882 002c 3046     		mov	r0, r6
 883 002e FFF7FEFF 		bl	_sendCmd
 884              	.LVL133:
 295:flash.c       ****   _sendCmd(addr2);
 885              		.loc 1 295 0
 886 0032 2846     		mov	r0, r5
 887 0034 FFF7FEFF 		bl	_sendCmd
 888              	.LVL134:
 296:flash.c       ****   _sendCmd(addr3);
 889              		.loc 1 296 0
 890 0038 2046     		mov	r0, r4
 891 003a FFF7FEFF 		bl	_sendCmd
 892              	.LVL135:
 297:flash.c       ****   cs_Write(1);
 893              		.loc 1 297 0
 894 003e 0120     		movs	r0, #1
 895 0040 FFF7FEFF 		bl	cs_Write
 896              	.LVL136:
 298:flash.c       **** 
 299:flash.c       ****   status = OK;
 300:flash.c       **** 
 301:flash.c       ****   return status;
 897              		.loc 1 301 0
 898 0044 0020     		movs	r0, #0
 899 0046 70BD     		pop	{r4, r5, r6, pc}
 900              	.LVL137:
 901              	.L70:
 284:flash.c       ****   if(_checkIfProtected(address)) return PROTECTED;
 902              		.loc 1 284 0
 903 0048 0320     		movs	r0, #3
 904 004a 70BD     		pop	{r4, r5, r6, pc}
 905              	.LVL138:
 906              	.L71:
 285:flash.c       **** 
 907              		.loc 1 285 0
 908 004c 0420     		movs	r0, #4
 302:flash.c       **** }
 909              		.loc 1 302 0
 910 004e 70BD     		pop	{r4, r5, r6, pc}
 911              		.cfi_endproc
 912              	.LFE75:
 913              		.size	blockErase, .-blockErase
 914              		.section	.text.chipErase,"ax",%progbits
ARM GAS  C:\Users\linar\AppData\Local\Temp\ccpLyYLJ.s 			page 23


 915              		.align	2
 916              		.global	chipErase
 917              		.thumb
 918              		.thumb_func
 919              		.type	chipErase, %function
 920              	chipErase:
 921              	.LFB76:
 303:flash.c       **** 
 304:flash.c       **** cmdStatusTypedef chipErase()
 305:flash.c       **** {
 922              		.loc 1 305 0
 923              		.cfi_startproc
 924              		@ args = 0, pretend = 0, frame = 0
 925              		@ frame_needed = 0, uses_anonymous_args = 0
 926 0000 08B5     		push	{r3, lr}
 927              		.cfi_def_cfa_offset 8
 928              		.cfi_offset 3, -8
 929              		.cfi_offset 14, -4
 930              	.LVL139:
 306:flash.c       ****   cmdStatusTypedef status = ERROR;
 307:flash.c       **** 
 308:flash.c       ****   if(_checkWIP()) return BUSY;
 931              		.loc 1 308 0
 932 0002 FFF7FEFF 		bl	_checkWIP
 933              	.LVL140:
 934 0006 88B9     		cbnz	r0, .L75
 309:flash.c       ****   if(_checkIfProtectedBitsSet()) return PROTECTED;
 935              		.loc 1 309 0
 936 0008 FFF7FEFF 		bl	_checkIfProtectedBitsSet
 937              	.LVL141:
 938 000c 80B9     		cbnz	r0, .L76
 310:flash.c       **** 
 311:flash.c       ****   SPIM_1_ClearRxBuffer();
 939              		.loc 1 311 0
 940 000e FFF7FEFF 		bl	SPIM_1_ClearRxBuffer
 941              	.LVL142:
 312:flash.c       **** 
 313:flash.c       ****   _writeEnable();
 942              		.loc 1 313 0
 943 0012 FFF7FEFF 		bl	_writeEnable
 944              	.LVL143:
 314:flash.c       ****   cs_Write(0);
 945              		.loc 1 314 0
 946 0016 0020     		movs	r0, #0
 947 0018 FFF7FEFF 		bl	cs_Write
 948              	.LVL144:
 315:flash.c       ****   _sendCmd(CHIP_ERASE_1);
 949              		.loc 1 315 0
 950 001c C720     		movs	r0, #199
 951 001e FFF7FEFF 		bl	_sendCmd
 952              	.LVL145:
 316:flash.c       ****   cs_Write(1);
 953              		.loc 1 316 0
 954 0022 0120     		movs	r0, #1
 955 0024 FFF7FEFF 		bl	cs_Write
 956              	.LVL146:
 317:flash.c       **** 
ARM GAS  C:\Users\linar\AppData\Local\Temp\ccpLyYLJ.s 			page 24


 318:flash.c       ****   status = OK;
 319:flash.c       **** 
 320:flash.c       ****   return status;
 957              		.loc 1 320 0
 958 0028 0020     		movs	r0, #0
 959 002a 08BD     		pop	{r3, pc}
 960              	.LVL147:
 961              	.L75:
 308:flash.c       ****   if(_checkIfProtectedBitsSet()) return PROTECTED;
 962              		.loc 1 308 0
 963 002c 0320     		movs	r0, #3
 964 002e 08BD     		pop	{r3, pc}
 965              	.L76:
 309:flash.c       **** 
 966              		.loc 1 309 0
 967 0030 0420     		movs	r0, #4
 321:flash.c       **** }
 968              		.loc 1 321 0
 969 0032 08BD     		pop	{r3, pc}
 970              		.cfi_endproc
 971              	.LFE76:
 972              		.size	chipErase, .-chipErase
 973              		.section	.text.deepPowerDown,"ax",%progbits
 974              		.align	2
 975              		.global	deepPowerDown
 976              		.thumb
 977              		.thumb_func
 978              		.type	deepPowerDown, %function
 979              	deepPowerDown:
 980              	.LFB77:
 322:flash.c       **** 
 323:flash.c       **** cmdStatusTypedef deepPowerDown()
 324:flash.c       **** {
 981              		.loc 1 324 0
 982              		.cfi_startproc
 983              		@ args = 0, pretend = 0, frame = 0
 984              		@ frame_needed = 0, uses_anonymous_args = 0
 985 0000 08B5     		push	{r3, lr}
 986              		.cfi_def_cfa_offset 8
 987              		.cfi_offset 3, -8
 988              		.cfi_offset 14, -4
 989              	.LVL148:
 325:flash.c       ****   cmdStatusTypedef status = ERROR;
 326:flash.c       **** 
 327:flash.c       ****   if(_checkWIP()) return BUSY;
 990              		.loc 1 327 0
 991 0002 FFF7FEFF 		bl	_checkWIP
 992              	.LVL149:
 993 0006 70B9     		cbnz	r0, .L80
 328:flash.c       **** 
 329:flash.c       ****   SPIM_1_ClearRxBuffer();
 994              		.loc 1 329 0
 995 0008 FFF7FEFF 		bl	SPIM_1_ClearRxBuffer
 996              	.LVL150:
 330:flash.c       **** 
 331:flash.c       ****   _writeEnable();
 997              		.loc 1 331 0
ARM GAS  C:\Users\linar\AppData\Local\Temp\ccpLyYLJ.s 			page 25


 998 000c FFF7FEFF 		bl	_writeEnable
 999              	.LVL151:
 332:flash.c       ****   cs_Write(0);
 1000              		.loc 1 332 0
 1001 0010 0020     		movs	r0, #0
 1002 0012 FFF7FEFF 		bl	cs_Write
 1003              	.LVL152:
 333:flash.c       ****   _sendCmd(PWR_DOWN);
 1004              		.loc 1 333 0
 1005 0016 B920     		movs	r0, #185
 1006 0018 FFF7FEFF 		bl	_sendCmd
 1007              	.LVL153:
 334:flash.c       ****   cs_Write(1);
 1008              		.loc 1 334 0
 1009 001c 0120     		movs	r0, #1
 1010 001e FFF7FEFF 		bl	cs_Write
 1011              	.LVL154:
 335:flash.c       **** 
 336:flash.c       ****   status = OK;
 337:flash.c       **** 
 338:flash.c       ****   return status;
 1012              		.loc 1 338 0
 1013 0022 0020     		movs	r0, #0
 1014 0024 08BD     		pop	{r3, pc}
 1015              	.LVL155:
 1016              	.L80:
 327:flash.c       **** 
 1017              		.loc 1 327 0
 1018 0026 0320     		movs	r0, #3
 339:flash.c       **** }
 1019              		.loc 1 339 0
 1020 0028 08BD     		pop	{r3, pc}
 1021              		.cfi_endproc
 1022              	.LFE77:
 1023              		.size	deepPowerDown, .-deepPowerDown
 1024 002a 00BF     		.section	.text.releaseDeepPowerDown,"ax",%progbits
 1025              		.align	2
 1026              		.global	releaseDeepPowerDown
 1027              		.thumb
 1028              		.thumb_func
 1029              		.type	releaseDeepPowerDown, %function
 1030              	releaseDeepPowerDown:
 1031              	.LFB78:
 340:flash.c       **** 
 341:flash.c       **** cmdStatusTypedef releaseDeepPowerDown()
 342:flash.c       **** {
 1032              		.loc 1 342 0
 1033              		.cfi_startproc
 1034              		@ args = 0, pretend = 0, frame = 0
 1035              		@ frame_needed = 0, uses_anonymous_args = 0
 1036 0000 08B5     		push	{r3, lr}
 1037              		.cfi_def_cfa_offset 8
 1038              		.cfi_offset 3, -8
 1039              		.cfi_offset 14, -4
 1040              	.LVL156:
 343:flash.c       ****   cmdStatusTypedef status = ERROR;
 344:flash.c       ****     
ARM GAS  C:\Users\linar\AppData\Local\Temp\ccpLyYLJ.s 			page 26


 345:flash.c       ****   SPIM_1_ClearRxBuffer();
 1041              		.loc 1 345 0
 1042 0002 FFF7FEFF 		bl	SPIM_1_ClearRxBuffer
 1043              	.LVL157:
 346:flash.c       **** 
 347:flash.c       ****   cs_Write(0);
 1044              		.loc 1 347 0
 1045 0006 0020     		movs	r0, #0
 1046 0008 FFF7FEFF 		bl	cs_Write
 1047              	.LVL158:
 348:flash.c       ****   _sendCmd(REL_PWR_DOWN_DEV_ID);
 1048              		.loc 1 348 0
 1049 000c AB20     		movs	r0, #171
 1050 000e FFF7FEFF 		bl	_sendCmd
 1051              	.LVL159:
 349:flash.c       ****   cs_Write(1);
 1052              		.loc 1 349 0
 1053 0012 0120     		movs	r0, #1
 1054 0014 FFF7FEFF 		bl	cs_Write
 1055              	.LVL160:
 350:flash.c       **** 
 351:flash.c       ****   status = OK;
 352:flash.c       **** 
 353:flash.c       ****   return status;
 354:flash.c       **** }
 1056              		.loc 1 354 0
 1057 0018 0020     		movs	r0, #0
 1058 001a 08BD     		pop	{r3, pc}
 1059              		.cfi_endproc
 1060              	.LFE78:
 1061              		.size	releaseDeepPowerDown, .-releaseDeepPowerDown
 1062              		.section	.text.releaseDeepPowerDownDevID,"ax",%progbits
 1063              		.align	2
 1064              		.global	releaseDeepPowerDownDevID
 1065              		.thumb
 1066              		.thumb_func
 1067              		.type	releaseDeepPowerDownDevID, %function
 1068              	releaseDeepPowerDownDevID:
 1069              	.LFB79:
 355:flash.c       **** 
 356:flash.c       **** uint8 releaseDeepPowerDownDevID()
 357:flash.c       **** {
 1070              		.loc 1 357 0
 1071              		.cfi_startproc
 1072              		@ args = 0, pretend = 0, frame = 0
 1073              		@ frame_needed = 0, uses_anonymous_args = 0
 1074 0000 08B5     		push	{r3, lr}
 1075              		.cfi_def_cfa_offset 8
 1076              		.cfi_offset 3, -8
 1077              		.cfi_offset 14, -4
 1078              	.LVL161:
 358:flash.c       ****   uint8 devId = 0;
 359:flash.c       ****     
 360:flash.c       ****   SPIM_1_ClearRxBuffer();
 1079              		.loc 1 360 0
 1080 0002 FFF7FEFF 		bl	SPIM_1_ClearRxBuffer
 1081              	.LVL162:
ARM GAS  C:\Users\linar\AppData\Local\Temp\ccpLyYLJ.s 			page 27


 361:flash.c       **** 
 362:flash.c       ****   cs_Write(0);
 1082              		.loc 1 362 0
 1083 0006 0020     		movs	r0, #0
 1084 0008 FFF7FEFF 		bl	cs_Write
 1085              	.LVL163:
 363:flash.c       ****   _sendCmd(REL_PWR_DOWN_DEV_ID);
 1086              		.loc 1 363 0
 1087 000c AB20     		movs	r0, #171
 1088 000e FFF7FEFF 		bl	_sendCmd
 1089              	.LVL164:
 364:flash.c       ****   _sendCmd(SHIFT_OUT);
 1090              		.loc 1 364 0
 1091 0012 0020     		movs	r0, #0
 1092 0014 FFF7FEFF 		bl	_sendCmd
 1093              	.LVL165:
 365:flash.c       ****   _sendCmd(SHIFT_OUT);
 1094              		.loc 1 365 0
 1095 0018 0020     		movs	r0, #0
 1096 001a FFF7FEFF 		bl	_sendCmd
 1097              	.LVL166:
 366:flash.c       ****   _sendCmd(SHIFT_OUT);
 1098              		.loc 1 366 0
 1099 001e 0020     		movs	r0, #0
 1100 0020 FFF7FEFF 		bl	_sendCmd
 1101              	.LVL167:
 367:flash.c       ****   _sendCmd(SHIFT_OUT);
 1102              		.loc 1 367 0
 1103 0024 0020     		movs	r0, #0
 1104 0026 FFF7FEFF 		bl	_sendCmd
 1105              	.LVL168:
 368:flash.c       ****   cs_Write(1);
 1106              		.loc 1 368 0
 1107 002a 0120     		movs	r0, #1
 1108 002c FFF7FEFF 		bl	cs_Write
 1109              	.LVL169:
 369:flash.c       **** 
 370:flash.c       ****   devId = SPIM_1_ReadRxData();
 1110              		.loc 1 370 0
 1111 0030 FFF7FEFF 		bl	SPIM_1_ReadRxData
 1112              	.LVL170:
 371:flash.c       **** 
 372:flash.c       ****   return devId;
 373:flash.c       **** }
 1113              		.loc 1 373 0
 1114 0034 08BD     		pop	{r3, pc}
 1115              		.cfi_endproc
 1116              	.LFE79:
 1117              		.size	releaseDeepPowerDownDevID, .-releaseDeepPowerDownDevID
 1118 0036 00BF     		.section	.text.readMnfctDevId,"ax",%progbits
 1119              		.align	2
 1120              		.global	readMnfctDevId
 1121              		.thumb
 1122              		.thumb_func
 1123              		.type	readMnfctDevId, %function
 1124              	readMnfctDevId:
 1125              	.LFB80:
ARM GAS  C:\Users\linar\AppData\Local\Temp\ccpLyYLJ.s 			page 28


 374:flash.c       **** 
 375:flash.c       **** cmdStatusTypedef readMnfctDevId(uint8* mnfct, uint8* devId)
 376:flash.c       **** {
 1126              		.loc 1 376 0
 1127              		.cfi_startproc
 1128              		@ args = 0, pretend = 0, frame = 0
 1129              		@ frame_needed = 0, uses_anonymous_args = 0
 1130              	.LVL171:
 1131 0000 38B5     		push	{r3, r4, r5, lr}
 1132              		.cfi_def_cfa_offset 16
 1133              		.cfi_offset 3, -16
 1134              		.cfi_offset 4, -12
 1135              		.cfi_offset 5, -8
 1136              		.cfi_offset 14, -4
 1137 0002 0446     		mov	r4, r0
 1138 0004 0D46     		mov	r5, r1
 1139              	.LVL172:
 377:flash.c       ****   cmdStatusTypedef status = ERROR;
 378:flash.c       ****     
 379:flash.c       ****   if(_checkWIP()) return BUSY;
 1140              		.loc 1 379 0
 1141 0006 FFF7FEFF 		bl	_checkWIP
 1142              	.LVL173:
 1143 000a 88BB     		cbnz	r0, .L93
 380:flash.c       ****     
 381:flash.c       ****   SPIM_1_ClearRxBuffer();
 1144              		.loc 1 381 0
 1145 000c FFF7FEFF 		bl	SPIM_1_ClearRxBuffer
 1146              	.LVL174:
 382:flash.c       **** 
 383:flash.c       ****   cs_Write(0);
 1147              		.loc 1 383 0
 1148 0010 0020     		movs	r0, #0
 1149 0012 FFF7FEFF 		bl	cs_Write
 1150              	.LVL175:
 384:flash.c       ****   _sendCmd(MANF_DEV_ID);
 1151              		.loc 1 384 0
 1152 0016 9020     		movs	r0, #144
 1153 0018 FFF7FEFF 		bl	_sendCmd
 1154              	.LVL176:
 385:flash.c       ****   _sendCmd(SHIFT_OUT);
 1155              		.loc 1 385 0
 1156 001c 0020     		movs	r0, #0
 1157 001e FFF7FEFF 		bl	_sendCmd
 1158              	.LVL177:
 386:flash.c       ****   _sendCmd(SHIFT_OUT);
 1159              		.loc 1 386 0
 1160 0022 0020     		movs	r0, #0
 1161 0024 FFF7FEFF 		bl	_sendCmd
 1162              	.LVL178:
 387:flash.c       ****   _sendCmd(SHIFT_OUT);
 1163              		.loc 1 387 0
 1164 0028 0020     		movs	r0, #0
 1165 002a FFF7FEFF 		bl	_sendCmd
 1166              	.LVL179:
 388:flash.c       ****   _sendCmd(SHIFT_OUT);
 1167              		.loc 1 388 0
ARM GAS  C:\Users\linar\AppData\Local\Temp\ccpLyYLJ.s 			page 29


 1168 002e 0020     		movs	r0, #0
 1169 0030 FFF7FEFF 		bl	_sendCmd
 1170              	.LVL180:
 389:flash.c       ****   _sendCmd(SHIFT_OUT);
 1171              		.loc 1 389 0
 1172 0034 0020     		movs	r0, #0
 1173 0036 FFF7FEFF 		bl	_sendCmd
 1174              	.LVL181:
 390:flash.c       ****   cs_Write(1);
 1175              		.loc 1 390 0
 1176 003a 0120     		movs	r0, #1
 1177 003c FFF7FEFF 		bl	cs_Write
 1178              	.LVL182:
 391:flash.c       ****     
 392:flash.c       ****   while(SPIM_1_GetRxBufferSize() > 0)
 1179              		.loc 1 392 0
 1180 0040 11E0     		b	.L88
 1181              	.L92:
 393:flash.c       ****   {
 394:flash.c       ****     if(SPIM_1_GetRxBufferSize() == 2) *mnfct = SPIM_1_ReadRxData();
 1182              		.loc 1 394 0
 1183 0042 FFF7FEFF 		bl	SPIM_1_GetRxBufferSize
 1184              	.LVL183:
 1185 0046 0228     		cmp	r0, #2
 1186 0048 03D1     		bne	.L89
 1187              		.loc 1 394 0 is_stmt 0 discriminator 1
 1188 004a FFF7FEFF 		bl	SPIM_1_ReadRxData
 1189              	.LVL184:
 1190 004e 2070     		strb	r0, [r4]
 1191 0050 09E0     		b	.L88
 1192              	.L89:
 395:flash.c       ****     else if(SPIM_1_GetRxBufferSize() == 1) *devId = SPIM_1_ReadRxData();
 1193              		.loc 1 395 0 is_stmt 1
 1194 0052 FFF7FEFF 		bl	SPIM_1_GetRxBufferSize
 1195              	.LVL185:
 1196 0056 0128     		cmp	r0, #1
 1197 0058 03D1     		bne	.L91
 1198              		.loc 1 395 0 is_stmt 0 discriminator 1
 1199 005a FFF7FEFF 		bl	SPIM_1_ReadRxData
 1200              	.LVL186:
 1201 005e 2870     		strb	r0, [r5]
 1202 0060 01E0     		b	.L88
 1203              	.L91:
 396:flash.c       ****     else SPIM_1_ReadRxData();
 1204              		.loc 1 396 0 is_stmt 1
 1205 0062 FFF7FEFF 		bl	SPIM_1_ReadRxData
 1206              	.LVL187:
 1207              	.L88:
 392:flash.c       ****   {
 1208              		.loc 1 392 0
 1209 0066 FFF7FEFF 		bl	SPIM_1_GetRxBufferSize
 1210              	.LVL188:
 1211 006a 0028     		cmp	r0, #0
 1212 006c E9D1     		bne	.L92
 1213 006e 38BD     		pop	{r3, r4, r5, pc}
 1214              	.LVL189:
 1215              	.L93:
ARM GAS  C:\Users\linar\AppData\Local\Temp\ccpLyYLJ.s 			page 30


 379:flash.c       ****     
 1216              		.loc 1 379 0
 1217 0070 0320     		movs	r0, #3
 397:flash.c       ****   }
 398:flash.c       **** 
 399:flash.c       ****   status = OK;
 400:flash.c       **** 
 401:flash.c       ****   return status;
 402:flash.c       **** }
 1218              		.loc 1 402 0
 1219 0072 38BD     		pop	{r3, r4, r5, pc}
 1220              		.cfi_endproc
 1221              	.LFE80:
 1222              		.size	readMnfctDevId, .-readMnfctDevId
 1223              		.section	.text.readJEDECId,"ax",%progbits
 1224              		.align	2
 1225              		.global	readJEDECId
 1226              		.thumb
 1227              		.thumb_func
 1228              		.type	readJEDECId, %function
 1229              	readJEDECId:
 1230              	.LFB81:
 403:flash.c       **** 
 404:flash.c       **** cmdStatusTypedef readJEDECId(uint8* mnfct, uint8* type, uint8* capacity)
 405:flash.c       **** {
 1231              		.loc 1 405 0
 1232              		.cfi_startproc
 1233              		@ args = 0, pretend = 0, frame = 0
 1234              		@ frame_needed = 0, uses_anonymous_args = 0
 1235              	.LVL190:
 1236 0000 70B5     		push	{r4, r5, r6, lr}
 1237              		.cfi_def_cfa_offset 16
 1238              		.cfi_offset 4, -16
 1239              		.cfi_offset 5, -12
 1240              		.cfi_offset 6, -8
 1241              		.cfi_offset 14, -4
 1242 0002 0446     		mov	r4, r0
 1243 0004 0D46     		mov	r5, r1
 1244 0006 1646     		mov	r6, r2
 1245              	.LVL191:
 406:flash.c       ****   cmdStatusTypedef status = ERROR;
 407:flash.c       **** 
 408:flash.c       ****   if(_checkWIP()) return BUSY;
 1246              		.loc 1 408 0
 1247 0008 FFF7FEFF 		bl	_checkWIP
 1248              	.LVL192:
 1249 000c 98BB     		cbnz	r0, .L103
 409:flash.c       **** 
 410:flash.c       ****   SPIM_1_ClearRxBuffer();
 1250              		.loc 1 410 0
 1251 000e FFF7FEFF 		bl	SPIM_1_ClearRxBuffer
 1252              	.LVL193:
 411:flash.c       **** 
 412:flash.c       ****   cs_Write(0);
 1253              		.loc 1 412 0
 1254 0012 0020     		movs	r0, #0
 1255 0014 FFF7FEFF 		bl	cs_Write
ARM GAS  C:\Users\linar\AppData\Local\Temp\ccpLyYLJ.s 			page 31


 1256              	.LVL194:
 413:flash.c       ****   _sendCmd(JEDEC_ID);
 1257              		.loc 1 413 0
 1258 0018 9F20     		movs	r0, #159
 1259 001a FFF7FEFF 		bl	_sendCmd
 1260              	.LVL195:
 414:flash.c       ****   _sendCmd(SHIFT_OUT);
 1261              		.loc 1 414 0
 1262 001e 0020     		movs	r0, #0
 1263 0020 FFF7FEFF 		bl	_sendCmd
 1264              	.LVL196:
 415:flash.c       ****   _sendCmd(SHIFT_OUT);
 1265              		.loc 1 415 0
 1266 0024 0020     		movs	r0, #0
 1267 0026 FFF7FEFF 		bl	_sendCmd
 1268              	.LVL197:
 416:flash.c       ****   _sendCmd(SHIFT_OUT);
 1269              		.loc 1 416 0
 1270 002a 0020     		movs	r0, #0
 1271 002c FFF7FEFF 		bl	_sendCmd
 1272              	.LVL198:
 417:flash.c       ****   cs_Write(1);
 1273              		.loc 1 417 0
 1274 0030 0120     		movs	r0, #1
 1275 0032 FFF7FEFF 		bl	cs_Write
 1276              	.LVL199:
 418:flash.c       **** 
 419:flash.c       ****   while(SPIM_1_GetRxBufferSize() > 0)
 1277              		.loc 1 419 0
 1278 0036 19E0     		b	.L97
 1279              	.L102:
 420:flash.c       ****   {
 421:flash.c       ****     if(SPIM_1_GetRxBufferSize() == 3) *mnfct = SPIM_1_ReadRxData();
 1280              		.loc 1 421 0
 1281 0038 FFF7FEFF 		bl	SPIM_1_GetRxBufferSize
 1282              	.LVL200:
 1283 003c 0328     		cmp	r0, #3
 1284 003e 03D1     		bne	.L98
 1285              		.loc 1 421 0 is_stmt 0 discriminator 1
 1286 0040 FFF7FEFF 		bl	SPIM_1_ReadRxData
 1287              	.LVL201:
 1288 0044 2070     		strb	r0, [r4]
 1289 0046 11E0     		b	.L97
 1290              	.L98:
 422:flash.c       ****     else if(SPIM_1_GetRxBufferSize() == 2) *type = SPIM_1_ReadRxData();
 1291              		.loc 1 422 0 is_stmt 1
 1292 0048 FFF7FEFF 		bl	SPIM_1_GetRxBufferSize
 1293              	.LVL202:
 1294 004c 0228     		cmp	r0, #2
 1295 004e 03D1     		bne	.L100
 1296              		.loc 1 422 0 is_stmt 0 discriminator 1
 1297 0050 FFF7FEFF 		bl	SPIM_1_ReadRxData
 1298              	.LVL203:
 1299 0054 2870     		strb	r0, [r5]
 1300 0056 09E0     		b	.L97
 1301              	.L100:
 423:flash.c       ****     else if(SPIM_1_GetRxBufferSize() == 1) *capacity = SPIM_1_ReadRxData();
ARM GAS  C:\Users\linar\AppData\Local\Temp\ccpLyYLJ.s 			page 32


 1302              		.loc 1 423 0 is_stmt 1
 1303 0058 FFF7FEFF 		bl	SPIM_1_GetRxBufferSize
 1304              	.LVL204:
 1305 005c 0128     		cmp	r0, #1
 1306 005e 03D1     		bne	.L101
 1307              		.loc 1 423 0 is_stmt 0 discriminator 1
 1308 0060 FFF7FEFF 		bl	SPIM_1_ReadRxData
 1309              	.LVL205:
 1310 0064 3070     		strb	r0, [r6]
 1311 0066 01E0     		b	.L97
 1312              	.L101:
 424:flash.c       ****     else SPIM_1_ReadRxData();
 1313              		.loc 1 424 0 is_stmt 1
 1314 0068 FFF7FEFF 		bl	SPIM_1_ReadRxData
 1315              	.LVL206:
 1316              	.L97:
 419:flash.c       ****   {
 1317              		.loc 1 419 0
 1318 006c FFF7FEFF 		bl	SPIM_1_GetRxBufferSize
 1319              	.LVL207:
 1320 0070 0028     		cmp	r0, #0
 1321 0072 E1D1     		bne	.L102
 1322 0074 70BD     		pop	{r4, r5, r6, pc}
 1323              	.LVL208:
 1324              	.L103:
 408:flash.c       **** 
 1325              		.loc 1 408 0
 1326 0076 0320     		movs	r0, #3
 425:flash.c       ****   }
 426:flash.c       **** 
 427:flash.c       ****   status = OK;
 428:flash.c       **** 
 429:flash.c       ****   return status;
 430:flash.c       **** }
 1327              		.loc 1 430 0
 1328 0078 70BD     		pop	{r4, r5, r6, pc}
 1329              		.cfi_endproc
 1330              	.LFE81:
 1331              		.size	readJEDECId, .-readJEDECId
 1332 007a 00BF     		.text
 1333              	.Letext0:
 1334              		.file 2 "c:\\program files (x86)\\cypress\\psoc creator\\4.4\\psoc creator\\import\\gnu\\arm\\5.4.
 1335              		.file 3 "c:\\program files (x86)\\cypress\\psoc creator\\4.4\\psoc creator\\import\\gnu\\arm\\5.4.
 1336              		.file 4 "Generated_Source\\PSoC5/cytypes.h"
 1337              		.file 5 "flash.h"
 1338              		.file 6 "Generated_Source\\PSoC5/SPIM_1.h"
 1339              		.file 7 "Generated_Source\\PSoC5/cs.h"
 1340              		.file 8 "Generated_Source\\PSoC5/core_cm3.h"