ARM GAS  C:\Users\linar\AppData\Local\Temp\ccgDfqog.s 			page 1


   1              		.syntax unified
   2              		.cpu cortex-m3
   3              		.fpu softvfp
   4              		.eabi_attribute 20, 1
   5              		.eabi_attribute 21, 1
   6              		.eabi_attribute 23, 3
   7              		.eabi_attribute 24, 1
   8              		.eabi_attribute 25, 1
   9              		.eabi_attribute 26, 1
  10              		.eabi_attribute 30, 1
  11              		.eabi_attribute 34, 1
  12              		.eabi_attribute 18, 4
  13              		.thumb
  14              		.syntax unified
  15              		.file	"USBFS_SCSI_operations.c"
  16              		.text
  17              	.Ltext0:
  18              		.cfi_sections	.debug_frame
  19              		.section	.text.USBFS_MSC_SCSI_PreventMediaRemoval,"ax",%progbits
  20              		.align	2
  21              		.global	USBFS_MSC_SCSI_PreventMediaRemoval
  22              		.thumb
  23              		.thumb_func
  24              		.type	USBFS_MSC_SCSI_PreventMediaRemoval, %function
  25              	USBFS_MSC_SCSI_PreventMediaRemoval:
  26              	.LFB63:
  27              		.file 1 "USBFS_SCSI_operations.c"
   1:USBFS_SCSI_operations.c **** /*****************************************************************************
   2:USBFS_SCSI_operations.c **** * File Name: USBFS_SCSI_operations.c
   3:USBFS_SCSI_operations.c **** *
   4:USBFS_SCSI_operations.c **** * Version 2.19
   5:USBFS_SCSI_operations.c **** *
   6:USBFS_SCSI_operations.c **** * Description: This file provides routines to handle the SCSI requests from 
   7:USBFS_SCSI_operations.c **** *   the host.
   8:USBFS_SCSI_operations.c **** *
   9:USBFS_SCSI_operations.c **** * Owner:
  10:USBFS_SCSI_operations.c **** *	Ranjith M, Applications Engineer (rnjt@cypress.com)
  11:USBFS_SCSI_operations.c **** *   Ivan Grytsyk, Applications Engineer Sr (gryt@cypress.com)
  12:USBFS_SCSI_operations.c **** *   Vasyl Rodionov, Staff Systems Engr (rodi@cypress.com)
  13:USBFS_SCSI_operations.c **** *
  14:USBFS_SCSI_operations.c **** * Related Document:
  15:USBFS_SCSI_operations.c **** * 	SCSI Command Reference Manual:
  16:USBFS_SCSI_operations.c **** *	http://www.seagate.com/staticfiles/support/disc/manuals/scsi/100293068a.pdf
  17:USBFS_SCSI_operations.c **** *
  18:USBFS_SCSI_operations.c **** * Hardware Dependency:
  19:USBFS_SCSI_operations.c **** * 	CY8CKIT-042, 
  20:USBFS_SCSI_operations.c **** *   CY3280-MBR3, 
  21:USBFS_SCSI_operations.c **** *   CY8CKIT-193,
  22:USBFS_SCSI_operations.c **** *   CY3679 Atlas EVK,
  23:USBFS_SCSI_operations.c **** *   CY8CKIT-044,
  24:USBFS_SCSI_operations.c **** *   CY8CKIT-046,
  25:USBFS_SCSI_operations.c **** *   CY8CKIT-042 BLE,
  26:USBFS_SCSI_operations.c **** *   CY3676  Hercules EVK,
  27:USBFS_SCSI_operations.c **** *   CY3677  Hercules EVK
  28:USBFS_SCSI_operations.c **** *
  29:USBFS_SCSI_operations.c **** * Code Tested With:
  30:USBFS_SCSI_operations.c **** * 	Creator 3.3 CP3(3.3.0.9604)
ARM GAS  C:\Users\linar\AppData\Local\Temp\ccgDfqog.s 			page 2


  31:USBFS_SCSI_operations.c **** *	GCC 4.9-2015-q1-update(Cypress provided)
  32:USBFS_SCSI_operations.c **** *	CY8CKIT-044, -046, -042, -042 BLE, BLE Dongle, -040, -042 BLE-A
  33:USBFS_SCSI_operations.c **** *
  34:USBFS_SCSI_operations.c **** ******************************************************************************
  35:USBFS_SCSI_operations.c **** * Copyright (2016), Cypress Semiconductor Corporation.
  36:USBFS_SCSI_operations.c **** ******************************************************************************
  37:USBFS_SCSI_operations.c **** * This software is owned by Cypress Semiconductor Corporation (Cypress) and is
  38:USBFS_SCSI_operations.c **** * protected by and subject to worldwide patent protection (United States and
  39:USBFS_SCSI_operations.c **** * foreign), United States copyright laws and international treaty provisions.
  40:USBFS_SCSI_operations.c **** * Cypress hereby grants to licensee a personal, non-exclusive, non-transferable
  41:USBFS_SCSI_operations.c **** * license to copy, use, modify, create derivative works of, and compile the
  42:USBFS_SCSI_operations.c **** * Cypress Source Code and derivative works for the sole purpose of creating
  43:USBFS_SCSI_operations.c **** * custom software in support of licensee product to be used only in conjunction
  44:USBFS_SCSI_operations.c **** * with a Cypress integrated circuit as specified in the applicable agreement.
  45:USBFS_SCSI_operations.c **** * Any reproduction, modification, translation, compilation, or representation of
  46:USBFS_SCSI_operations.c **** * this software except as specified above is prohibited without the express
  47:USBFS_SCSI_operations.c **** * written permission of Cypress.
  48:USBFS_SCSI_operations.c **** *
  49:USBFS_SCSI_operations.c **** * Disclaimer: CYPRESS MAKES NO WARRANTY OF ANY KIND, EXPRESS OR IMPLIED, WITH
  50:USBFS_SCSI_operations.c **** * REGARD TO THIS MATERIAL, INCLUDING, BUT NOT LIMITED TO, THE IMPLIED
  51:USBFS_SCSI_operations.c **** * WARRANTIES OF MERCHANTABILITY AND FITNESS FOR A PARTICULAR PURPOSE.
  52:USBFS_SCSI_operations.c **** * Cypress reserves the right to make changes without further notice to the
  53:USBFS_SCSI_operations.c **** * materials described herein. Cypress does not assume any liability arising out
  54:USBFS_SCSI_operations.c **** * of the application or use of any product or circuit described herein. Cypress
  55:USBFS_SCSI_operations.c **** * does not authorize its products for use as critical components in life-support
  56:USBFS_SCSI_operations.c **** * systems where a malfunction or failure may reasonably be expected to result in
  57:USBFS_SCSI_operations.c **** * significant injury to the user. The inclusion of Cypress' product in a life-
  58:USBFS_SCSI_operations.c **** * support systems application implies that the manufacturer assumes all risk of
  59:USBFS_SCSI_operations.c **** * such use and in doing so indemnifies Cypress against all charges. Use may be
  60:USBFS_SCSI_operations.c **** * limited by and subject to the applicable Cypress software license agreement.
  61:USBFS_SCSI_operations.c **** *****************************************************************************/
  62:USBFS_SCSI_operations.c **** //#include "version.h"
  63:USBFS_SCSI_operations.c **** #include "project.h"
  64:USBFS_SCSI_operations.c **** #include "USBFS_msc_cust.h"
  65:USBFS_SCSI_operations.c **** #include "USBFS_SCSI_operations.h"
  66:USBFS_SCSI_operations.c **** 
  67:USBFS_SCSI_operations.c **** 
  68:USBFS_SCSI_operations.c **** #define	VERSION_STRING      "0219"
  69:USBFS_SCSI_operations.c **** 
  70:USBFS_SCSI_operations.c **** /* Variable to keep track of when to send a Test Unit Ready
  71:USBFS_SCSI_operations.c ****  * fail status to force a read from the host. */
  72:USBFS_SCSI_operations.c **** uint8 forceOS = FALSE;
  73:USBFS_SCSI_operations.c **** 
  74:USBFS_SCSI_operations.c **** uint8 statusFileTimer = ZERO;
  75:USBFS_SCSI_operations.c **** 
  76:USBFS_SCSI_operations.c **** static uint8 mediaEjectedState = FALSE;
  77:USBFS_SCSI_operations.c **** 
  78:USBFS_SCSI_operations.c **** /* Variable to keep track of failed commands. */
  79:USBFS_SCSI_operations.c **** static uint8 commandFailed = FALSE;
  80:USBFS_SCSI_operations.c **** 
  81:USBFS_SCSI_operations.c **** /* Should not exceet 8 characters. */
  82:USBFS_SCSI_operations.c **** CYCODE unsigned char vendorIDT10[] = "ANKS ";
  83:USBFS_SCSI_operations.c **** 
  84:USBFS_SCSI_operations.c **** /* Should not exceet 16 characters. */
  85:USBFS_SCSI_operations.c **** CYCODE unsigned char productID[] = "HIMA";
  86:USBFS_SCSI_operations.c **** 
  87:USBFS_SCSI_operations.c **** /* Match this with VER_MAJOR, VER_MINOR defined in version.h */
ARM GAS  C:\Users\linar\AppData\Local\Temp\ccgDfqog.s 			page 3


  88:USBFS_SCSI_operations.c **** CYCODE unsigned char productRev[] = VERSION_STRING;
  89:USBFS_SCSI_operations.c **** 
  90:USBFS_SCSI_operations.c **** /*******************************************************************************
  91:USBFS_SCSI_operations.c **** * Function Name: USBFS_MSC_SCSI_TestUnitReady()
  92:USBFS_SCSI_operations.c **** ********************************************************************************
  93:USBFS_SCSI_operations.c **** * Summary:
  94:USBFS_SCSI_operations.c **** *  Responds to the periodic Test Unit Ready Command from host. Send PASS by default.
  95:USBFS_SCSI_operations.c **** *
  96:USBFS_SCSI_operations.c **** * Parameters:
  97:USBFS_SCSI_operations.c **** *  void
  98:USBFS_SCSI_operations.c **** *
  99:USBFS_SCSI_operations.c **** * Return:
 100:USBFS_SCSI_operations.c **** *  cystatus: PASS/FAIL.
 101:USBFS_SCSI_operations.c **** *
 102:USBFS_SCSI_operations.c **** *******************************************************************************/
 103:USBFS_SCSI_operations.c **** cystatus USBFS_MSC_SCSI_PreventMediaRemoval(uint8 prevent)
 104:USBFS_SCSI_operations.c **** {
  28              		.loc 1 104 0
  29              		.cfi_startproc
  30              		@ args = 0, pretend = 0, frame = 0
  31              		@ frame_needed = 0, uses_anonymous_args = 0
  32              		@ link register save eliminated.
  33              	.LVL0:
 105:USBFS_SCSI_operations.c **** 	cystatus commandStatus = USBFS_MSC_CSW_FAIL;
 106:USBFS_SCSI_operations.c **** 
 107:USBFS_SCSI_operations.c **** 	if(prevent == FALSE)
  34              		.loc 1 107 0
  35 0000 18B1     		cbz	r0, .L3
 108:USBFS_SCSI_operations.c **** 	{
 109:USBFS_SCSI_operations.c **** 		/* Send pass if prevent is not enabled. */
 110:USBFS_SCSI_operations.c **** 		commandStatus = USBFS_MSC_CSW_PASS;
 111:USBFS_SCSI_operations.c **** 	}
 112:USBFS_SCSI_operations.c **** 	else
 113:USBFS_SCSI_operations.c **** 	{
 114:USBFS_SCSI_operations.c **** 		/* Send a fail response for command to force
 115:USBFS_SCSI_operations.c **** 		 * the OS to initiate a Request Sense. */
 116:USBFS_SCSI_operations.c **** 		commandStatus = USBFS_MSC_CSW_FAIL;
 117:USBFS_SCSI_operations.c **** 		commandFailed = TRUE;
  36              		.loc 1 117 0
  37 0002 0120     		movs	r0, #1
  38              	.LVL1:
  39 0004 024B     		ldr	r3, .L4
  40 0006 1870     		strb	r0, [r3]
  41 0008 7047     		bx	lr
  42              	.LVL2:
  43              	.L3:
 110:USBFS_SCSI_operations.c **** 	}
  44              		.loc 1 110 0
  45 000a 0020     		movs	r0, #0
  46              	.LVL3:
 118:USBFS_SCSI_operations.c **** 	}
 119:USBFS_SCSI_operations.c **** 	
 120:USBFS_SCSI_operations.c **** 	return(commandStatus);
 121:USBFS_SCSI_operations.c **** }
  47              		.loc 1 121 0
  48 000c 7047     		bx	lr
  49              	.L5:
ARM GAS  C:\Users\linar\AppData\Local\Temp\ccgDfqog.s 			page 4


  50 000e 00BF     		.align	2
  51              	.L4:
  52 0010 00000000 		.word	.LANCHOR0
  53              		.cfi_endproc
  54              	.LFE63:
  55              		.size	USBFS_MSC_SCSI_PreventMediaRemoval, .-USBFS_MSC_SCSI_PreventMediaRemoval
  56              		.section	.text.USBFS_MSC_SCSI_TestUnitReady,"ax",%progbits
  57              		.align	2
  58              		.global	USBFS_MSC_SCSI_TestUnitReady
  59              		.thumb
  60              		.thumb_func
  61              		.type	USBFS_MSC_SCSI_TestUnitReady, %function
  62              	USBFS_MSC_SCSI_TestUnitReady:
  63              	.LFB64:
 122:USBFS_SCSI_operations.c **** 
 123:USBFS_SCSI_operations.c **** /*******************************************************************************
 124:USBFS_SCSI_operations.c **** * Function Name: USBFS_MSC_SCSI_TestUnitReady()
 125:USBFS_SCSI_operations.c **** ********************************************************************************
 126:USBFS_SCSI_operations.c **** * Summary:
 127:USBFS_SCSI_operations.c **** *  Responds to the periodic Test Unit Ready Command from host. Send PASS by default.
 128:USBFS_SCSI_operations.c **** *
 129:USBFS_SCSI_operations.c **** * Parameters:
 130:USBFS_SCSI_operations.c **** *  void
 131:USBFS_SCSI_operations.c **** *
 132:USBFS_SCSI_operations.c **** * Return:
 133:USBFS_SCSI_operations.c **** *  cystatus: PASS/FAIL.
 134:USBFS_SCSI_operations.c **** *
 135:USBFS_SCSI_operations.c **** *******************************************************************************/
 136:USBFS_SCSI_operations.c **** cystatus USBFS_MSC_SCSI_TestUnitReady(void)
 137:USBFS_SCSI_operations.c **** {
  64              		.loc 1 137 0
  65              		.cfi_startproc
  66              		@ args = 0, pretend = 0, frame = 0
  67              		@ frame_needed = 0, uses_anonymous_args = 0
  68              		@ link register save eliminated.
  69              	.LVL4:
 138:USBFS_SCSI_operations.c **** 	cystatus commandStatus = USBFS_MSC_CSW_FAIL;
 139:USBFS_SCSI_operations.c **** 	
 140:USBFS_SCSI_operations.c **** 	if(mediaEjectedState == TRUE)
  70              		.loc 1 140 0
  71 0000 0A4B     		ldr	r3, .L11
  72 0002 5B78     		ldrb	r3, [r3, #1]	@ zero_extendqisi2
  73 0004 012B     		cmp	r3, #1
  74 0006 0BD0     		beq	.L8
 141:USBFS_SCSI_operations.c **** 	{
 142:USBFS_SCSI_operations.c **** 		/* Send a fail response for Test Unit Ready command 
 143:USBFS_SCSI_operations.c **** 		 * since the media is in ejected state. */
 144:USBFS_SCSI_operations.c **** 		commandStatus = USBFS_MSC_CSW_FAIL;
 145:USBFS_SCSI_operations.c **** 	}
 146:USBFS_SCSI_operations.c **** 	else
 147:USBFS_SCSI_operations.c **** 	{
 148:USBFS_SCSI_operations.c **** 		if(forceOS == FALSE)
  75              		.loc 1 148 0
  76 0008 084B     		ldr	r3, .L11
  77 000a 9B78     		ldrb	r3, [r3, #2]	@ zero_extendqisi2
  78 000c 53B1     		cbz	r3, .L9
 149:USBFS_SCSI_operations.c **** 		{
ARM GAS  C:\Users\linar\AppData\Local\Temp\ccgDfqog.s 			page 5


 150:USBFS_SCSI_operations.c **** 			/*Send pass by default. */
 151:USBFS_SCSI_operations.c **** 			commandStatus = USBFS_MSC_CSW_PASS;
 152:USBFS_SCSI_operations.c **** 		}
 153:USBFS_SCSI_operations.c **** 		else
 154:USBFS_SCSI_operations.c **** 		{
 155:USBFS_SCSI_operations.c **** 			if(statusFileTimer >= STATUS_FILE_TIMEOUT)
  79              		.loc 1 155 0
  80 000e 074B     		ldr	r3, .L11
  81 0010 DB78     		ldrb	r3, [r3, #3]	@ zero_extendqisi2
  82 0012 C72B     		cmp	r3, #199
  83 0014 08D9     		bls	.L10
 156:USBFS_SCSI_operations.c **** 			{
 157:USBFS_SCSI_operations.c **** 				statusFileTimer = ZERO;
  84              		.loc 1 157 0
  85 0016 0022     		movs	r2, #0
  86 0018 044B     		ldr	r3, .L11
  87 001a DA70     		strb	r2, [r3, #3]
 158:USBFS_SCSI_operations.c **** 				
 159:USBFS_SCSI_operations.c **** 				/* Send a fail response for Test Unit Ready command to force
 160:USBFS_SCSI_operations.c **** 				 * the OS to initiate a Request Sense. */
 161:USBFS_SCSI_operations.c **** 				commandStatus = USBFS_MSC_CSW_FAIL;
  88              		.loc 1 161 0
  89 001c 0120     		movs	r0, #1
  90 001e 7047     		bx	lr
  91              	.L8:
 144:USBFS_SCSI_operations.c **** 	}
  92              		.loc 1 144 0
  93 0020 0120     		movs	r0, #1
  94 0022 7047     		bx	lr
  95              	.L9:
 151:USBFS_SCSI_operations.c **** 		}
  96              		.loc 1 151 0
  97 0024 0020     		movs	r0, #0
  98 0026 7047     		bx	lr
  99              	.L10:
 162:USBFS_SCSI_operations.c **** 			}
 163:USBFS_SCSI_operations.c **** 			else
 164:USBFS_SCSI_operations.c **** 			{
 165:USBFS_SCSI_operations.c **** 				/*Send pass for one more request before failing. */
 166:USBFS_SCSI_operations.c **** 				commandStatus = USBFS_MSC_CSW_PASS;
 100              		.loc 1 166 0
 101 0028 0020     		movs	r0, #0
 102              	.LVL5:
 167:USBFS_SCSI_operations.c **** 			}
 168:USBFS_SCSI_operations.c **** 		}
 169:USBFS_SCSI_operations.c **** 	}
 170:USBFS_SCSI_operations.c **** 	
 171:USBFS_SCSI_operations.c **** 	return(commandStatus);
 172:USBFS_SCSI_operations.c **** }
 103              		.loc 1 172 0
 104 002a 7047     		bx	lr
 105              	.L12:
 106              		.align	2
 107              	.L11:
 108 002c 00000000 		.word	.LANCHOR0
 109              		.cfi_endproc
 110              	.LFE64:
ARM GAS  C:\Users\linar\AppData\Local\Temp\ccgDfqog.s 			page 6


 111              		.size	USBFS_MSC_SCSI_TestUnitReady, .-USBFS_MSC_SCSI_TestUnitReady
 112              		.section	.text.USBFS_MSC_SCSI_RequestSense,"ax",%progbits
 113              		.align	2
 114              		.global	USBFS_MSC_SCSI_RequestSense
 115              		.thumb
 116              		.thumb_func
 117              		.type	USBFS_MSC_SCSI_RequestSense, %function
 118              	USBFS_MSC_SCSI_RequestSense:
 119              	.LFB65:
 173:USBFS_SCSI_operations.c **** 
 174:USBFS_SCSI_operations.c **** /*******************************************************************************
 175:USBFS_SCSI_operations.c **** * Function Name: USBFS_MSC_SCSI_RequestSense()
 176:USBFS_SCSI_operations.c **** ********************************************************************************
 177:USBFS_SCSI_operations.c **** * Summary:
 178:USBFS_SCSI_operations.c **** *  
 179:USBFS_SCSI_operations.c **** *
 180:USBFS_SCSI_operations.c **** * Parameters:
 181:USBFS_SCSI_operations.c **** *  void
 182:USBFS_SCSI_operations.c **** *
 183:USBFS_SCSI_operations.c **** * Return:
 184:USBFS_SCSI_operations.c **** *  cystatus: PASS
 185:USBFS_SCSI_operations.c **** *
 186:USBFS_SCSI_operations.c **** *******************************************************************************/
 187:USBFS_SCSI_operations.c **** cystatus USBFS_MSC_SCSI_RequestSense(uint8 *numOfBytes)
 188:USBFS_SCSI_operations.c **** {
 120              		.loc 1 188 0
 121              		.cfi_startproc
 122              		@ args = 0, pretend = 0, frame = 0
 123              		@ frame_needed = 0, uses_anonymous_args = 0
 124              	.LVL6:
 125 0000 38B5     		push	{r3, r4, r5, lr}
 126              		.cfi_def_cfa_offset 16
 127              		.cfi_offset 3, -16
 128              		.cfi_offset 4, -12
 129              		.cfi_offset 5, -8
 130              		.cfi_offset 14, -4
 131 0002 0546     		mov	r5, r0
 132              	.LVL7:
 189:USBFS_SCSI_operations.c **** 	cystatus commandStatus = USBFS_MSC_CSW_PASS;
 190:USBFS_SCSI_operations.c **** 	
 191:USBFS_SCSI_operations.c **** 	memset(USBFS_MSC_InEPBuffer, ZERO, *numOfBytes);
 133              		.loc 1 191 0
 134 0004 1F4C     		ldr	r4, .L19
 135 0006 0278     		ldrb	r2, [r0]	@ zero_extendqisi2
 136 0008 0021     		movs	r1, #0
 137 000a 2046     		mov	r0, r4
 138              	.LVL8:
 139 000c FFF7FEFF 		bl	memset
 140              	.LVL9:
 192:USBFS_SCSI_operations.c **** 	
 193:USBFS_SCSI_operations.c **** 	USBFS_MSC_InEPBuffer[ 0] = SENSE_RESPONSE_CODE;
 141              		.loc 1 193 0
 142 0010 7023     		movs	r3, #112
 143 0012 2370     		strb	r3, [r4]
 194:USBFS_SCSI_operations.c **** 
 195:USBFS_SCSI_operations.c **** 	USBFS_MSC_InEPBuffer[ 7] = SENSE_ADDITIONAL_LENGTH;
 144              		.loc 1 195 0
ARM GAS  C:\Users\linar\AppData\Local\Temp\ccgDfqog.s 			page 7


 145 0014 0A23     		movs	r3, #10
 146 0016 E371     		strb	r3, [r4, #7]
 196:USBFS_SCSI_operations.c **** 	
 197:USBFS_SCSI_operations.c **** 	if((forceOS == FALSE) && (commandFailed == FALSE) && (mediaEjectedState == FALSE))
 147              		.loc 1 197 0
 148 0018 1B4B     		ldr	r3, .L19+4
 149 001a 9B78     		ldrb	r3, [r3, #2]	@ zero_extendqisi2
 150 001c 4BB9     		cbnz	r3, .L14
 151              		.loc 1 197 0 is_stmt 0 discriminator 1
 152 001e 1A4A     		ldr	r2, .L19+4
 153 0020 1278     		ldrb	r2, [r2]	@ zero_extendqisi2
 154 0022 32B9     		cbnz	r2, .L14
 155              		.loc 1 197 0 discriminator 2
 156 0024 184A     		ldr	r2, .L19+4
 157 0026 5278     		ldrb	r2, [r2, #1]	@ zero_extendqisi2
 158 0028 1AB9     		cbnz	r2, .L14
 198:USBFS_SCSI_operations.c **** 	{
 199:USBFS_SCSI_operations.c **** 		USBFS_MSC_InEPBuffer[ 2] = SENSE_KEY_NO_SENSE;
 159              		.loc 1 199 0 is_stmt 1
 160 002a A270     		strb	r2, [r4, #2]
 200:USBFS_SCSI_operations.c **** 		
 201:USBFS_SCSI_operations.c **** 		USBFS_MSC_InEPBuffer[12] = SENSE_ASC_NO_SENSE;  
 161              		.loc 1 201 0
 162 002c 2273     		strb	r2, [r4, #12]
 202:USBFS_SCSI_operations.c **** 		USBFS_MSC_InEPBuffer[13] = SENSE_ASCQ_NO_SENSE; 
 163              		.loc 1 202 0
 164 002e 6273     		strb	r2, [r4, #13]
 165 0030 23E0     		b	.L15
 166              	.L14:
 203:USBFS_SCSI_operations.c **** 	}
 204:USBFS_SCSI_operations.c **** 	else
 205:USBFS_SCSI_operations.c **** 	{
 206:USBFS_SCSI_operations.c **** 		if(commandFailed == TRUE)
 167              		.loc 1 206 0
 168 0032 154A     		ldr	r2, .L19+4
 169 0034 1278     		ldrb	r2, [r2]	@ zero_extendqisi2
 170 0036 012A     		cmp	r2, #1
 171 0038 08D1     		bne	.L16
 207:USBFS_SCSI_operations.c **** 		{
 208:USBFS_SCSI_operations.c **** 			USBFS_MSC_InEPBuffer[ 2] = SENSE_KEY_ILLEGAL_REQUEST;
 172              		.loc 1 208 0
 173 003a 124A     		ldr	r2, .L19
 174 003c 0521     		movs	r1, #5
 175 003e 9170     		strb	r1, [r2, #2]
 209:USBFS_SCSI_operations.c **** 			
 210:USBFS_SCSI_operations.c **** 			USBFS_MSC_InEPBuffer[12] = SENSE_ASC_INVALID_FIELD_IN_CDB;
 176              		.loc 1 210 0
 177 0040 2421     		movs	r1, #36
 178 0042 1173     		strb	r1, [r2, #12]
 211:USBFS_SCSI_operations.c **** 			USBFS_MSC_InEPBuffer[13] = SENSE_ASCQ_NO_SENSE;    
 179              		.loc 1 211 0
 180 0044 0021     		movs	r1, #0
 181 0046 5173     		strb	r1, [r2, #13]
 212:USBFS_SCSI_operations.c **** 			commandFailed = FALSE;
 182              		.loc 1 212 0
 183 0048 0F4A     		ldr	r2, .L19+4
 184 004a 1170     		strb	r1, [r2]
ARM GAS  C:\Users\linar\AppData\Local\Temp\ccgDfqog.s 			page 8


 185              	.L16:
 213:USBFS_SCSI_operations.c **** 		}
 214:USBFS_SCSI_operations.c **** 		
 215:USBFS_SCSI_operations.c **** 		if(forceOS == TRUE)
 186              		.loc 1 215 0
 187 004c 012B     		cmp	r3, #1
 188 004e 09D1     		bne	.L17
 216:USBFS_SCSI_operations.c **** 		{
 217:USBFS_SCSI_operations.c **** 			USBFS_MSC_InEPBuffer[ 2] = SENSE_KEY_UNIT_ATTENTION;
 189              		.loc 1 217 0
 190 0050 0C4A     		ldr	r2, .L19
 191 0052 0623     		movs	r3, #6
 192 0054 9370     		strb	r3, [r2, #2]
 218:USBFS_SCSI_operations.c **** 			
 219:USBFS_SCSI_operations.c **** 			USBFS_MSC_InEPBuffer[12] = SENSE_ASC_MEDIA_REMOVAL;
 193              		.loc 1 219 0
 194 0056 3A23     		movs	r3, #58
 195 0058 1373     		strb	r3, [r2, #12]
 220:USBFS_SCSI_operations.c **** 			USBFS_MSC_InEPBuffer[13] = SENSE_ASCQ_NO_SENSE;    
 196              		.loc 1 220 0
 197 005a 0023     		movs	r3, #0
 198 005c 5373     		strb	r3, [r2, #13]
 221:USBFS_SCSI_operations.c **** 			forceOS = FALSE;
 199              		.loc 1 221 0
 200 005e 0A4A     		ldr	r2, .L19+4
 201 0060 9370     		strb	r3, [r2, #2]
 222:USBFS_SCSI_operations.c **** 			statusFileTimer = ZERO;
 202              		.loc 1 222 0
 203 0062 D370     		strb	r3, [r2, #3]
 204              	.L17:
 223:USBFS_SCSI_operations.c **** 		}
 224:USBFS_SCSI_operations.c **** 		
 225:USBFS_SCSI_operations.c **** 		/* If the host has sent a command to eject the drive,
 226:USBFS_SCSI_operations.c **** 		 * send not ready until re-mounted. */
 227:USBFS_SCSI_operations.c **** 		if(mediaEjectedState == TRUE)
 205              		.loc 1 227 0
 206 0064 084B     		ldr	r3, .L19+4
 207 0066 5B78     		ldrb	r3, [r3, #1]	@ zero_extendqisi2
 208 0068 012B     		cmp	r3, #1
 209 006a 06D1     		bne	.L15
 228:USBFS_SCSI_operations.c **** 		{
 229:USBFS_SCSI_operations.c **** 			USBFS_MSC_InEPBuffer[ 2] = SENSE_KEY_NOT_READY;
 210              		.loc 1 229 0
 211 006c 054B     		ldr	r3, .L19
 212 006e 0222     		movs	r2, #2
 213 0070 9A70     		strb	r2, [r3, #2]
 230:USBFS_SCSI_operations.c **** 			
 231:USBFS_SCSI_operations.c **** 			USBFS_MSC_InEPBuffer[12] = SENSE_ASC_MEDIA_REMOVAL;
 214              		.loc 1 231 0
 215 0072 3A22     		movs	r2, #58
 216 0074 1A73     		strb	r2, [r3, #12]
 232:USBFS_SCSI_operations.c **** 			USBFS_MSC_InEPBuffer[13] = SENSE_ASCQ_NO_SENSE;    
 217              		.loc 1 232 0
 218 0076 0022     		movs	r2, #0
 219 0078 5A73     		strb	r2, [r3, #13]
 220              	.L15:
 233:USBFS_SCSI_operations.c **** 		}
ARM GAS  C:\Users\linar\AppData\Local\Temp\ccgDfqog.s 			page 9


 234:USBFS_SCSI_operations.c **** 	}
 235:USBFS_SCSI_operations.c **** 	
 236:USBFS_SCSI_operations.c **** 	*numOfBytes = 18;
 221              		.loc 1 236 0
 222 007a 1223     		movs	r3, #18
 223 007c 2B70     		strb	r3, [r5]
 237:USBFS_SCSI_operations.c **** 	return(commandStatus);
 238:USBFS_SCSI_operations.c **** }
 224              		.loc 1 238 0
 225 007e 0020     		movs	r0, #0
 226 0080 38BD     		pop	{r3, r4, r5, pc}
 227              	.LVL10:
 228              	.L20:
 229 0082 00BF     		.align	2
 230              	.L19:
 231 0084 00000000 		.word	USBFS_MSC_InEPBuffer
 232 0088 00000000 		.word	.LANCHOR0
 233              		.cfi_endproc
 234              	.LFE65:
 235              		.size	USBFS_MSC_SCSI_RequestSense, .-USBFS_MSC_SCSI_RequestSense
 236              		.section	.text.USBFS_MSC_SCSI_FormatUnit,"ax",%progbits
 237              		.align	2
 238              		.global	USBFS_MSC_SCSI_FormatUnit
 239              		.thumb
 240              		.thumb_func
 241              		.type	USBFS_MSC_SCSI_FormatUnit, %function
 242              	USBFS_MSC_SCSI_FormatUnit:
 243              	.LFB66:
 239:USBFS_SCSI_operations.c **** 
 240:USBFS_SCSI_operations.c **** /*******************************************************************************
 241:USBFS_SCSI_operations.c **** * Function Name: USBFS_MSC_SCSI_FormatUnit()
 242:USBFS_SCSI_operations.c **** ********************************************************************************
 243:USBFS_SCSI_operations.c **** * Summary:
 244:USBFS_SCSI_operations.c **** *  Function returns fail as the file system does not support formatting.
 245:USBFS_SCSI_operations.c **** *
 246:USBFS_SCSI_operations.c **** * Parameters:
 247:USBFS_SCSI_operations.c **** *  void
 248:USBFS_SCSI_operations.c **** *
 249:USBFS_SCSI_operations.c **** * Return:
 250:USBFS_SCSI_operations.c **** *  cystatus: FAIL
 251:USBFS_SCSI_operations.c **** *
 252:USBFS_SCSI_operations.c **** *******************************************************************************/
 253:USBFS_SCSI_operations.c **** cystatus USBFS_MSC_SCSI_FormatUnit(uint8 *numOfBytes)
 254:USBFS_SCSI_operations.c **** {
 244              		.loc 1 254 0
 245              		.cfi_startproc
 246              		@ args = 0, pretend = 0, frame = 0
 247              		@ frame_needed = 0, uses_anonymous_args = 0
 248              		@ link register save eliminated.
 249              	.LVL11:
 255:USBFS_SCSI_operations.c **** 	cystatus commandStatus = USBFS_MSC_CSW_FAIL;
 256:USBFS_SCSI_operations.c **** 	
 257:USBFS_SCSI_operations.c **** 	commandFailed = TRUE;
 250              		.loc 1 257 0
 251 0000 0123     		movs	r3, #1
 252 0002 034A     		ldr	r2, .L22
 253 0004 1370     		strb	r3, [r2]
ARM GAS  C:\Users\linar\AppData\Local\Temp\ccgDfqog.s 			page 10


 258:USBFS_SCSI_operations.c **** 	
 259:USBFS_SCSI_operations.c **** 	*numOfBytes = ZERO;
 254              		.loc 1 259 0
 255 0006 0022     		movs	r2, #0
 256 0008 0270     		strb	r2, [r0]
 260:USBFS_SCSI_operations.c **** 	
 261:USBFS_SCSI_operations.c **** 	return(commandStatus);
 262:USBFS_SCSI_operations.c **** }
 257              		.loc 1 262 0
 258 000a 1846     		mov	r0, r3
 259              	.LVL12:
 260 000c 7047     		bx	lr
 261              	.L23:
 262 000e 00BF     		.align	2
 263              	.L22:
 264 0010 00000000 		.word	.LANCHOR0
 265              		.cfi_endproc
 266              	.LFE66:
 267              		.size	USBFS_MSC_SCSI_FormatUnit, .-USBFS_MSC_SCSI_FormatUnit
 268              		.section	.text.USBFS_MSC_SCSI_Inquiry,"ax",%progbits
 269              		.align	2
 270              		.global	USBFS_MSC_SCSI_Inquiry
 271              		.thumb
 272              		.thumb_func
 273              		.type	USBFS_MSC_SCSI_Inquiry, %function
 274              	USBFS_MSC_SCSI_Inquiry:
 275              	.LFB67:
 263:USBFS_SCSI_operations.c **** 
 264:USBFS_SCSI_operations.c **** /*******************************************************************************
 265:USBFS_SCSI_operations.c **** * Function Name: USBFS_MSC_SCSI_Inquiry()
 266:USBFS_SCSI_operations.c **** ********************************************************************************
 267:USBFS_SCSI_operations.c **** * Summary:
 268:USBFS_SCSI_operations.c **** *  Sends the details about the Mass Storage device to host. 
 269:USBFS_SCSI_operations.c **** *
 270:USBFS_SCSI_operations.c **** * Parameters:
 271:USBFS_SCSI_operations.c **** *  void
 272:USBFS_SCSI_operations.c **** *
 273:USBFS_SCSI_operations.c **** * Return:
 274:USBFS_SCSI_operations.c **** *  cystatus: PASS
 275:USBFS_SCSI_operations.c **** *
 276:USBFS_SCSI_operations.c **** *******************************************************************************/
 277:USBFS_SCSI_operations.c **** cystatus USBFS_MSC_SCSI_Inquiry(uint8 *numOfBytes)
 278:USBFS_SCSI_operations.c **** {
 276              		.loc 1 278 0
 277              		.cfi_startproc
 278              		@ args = 0, pretend = 0, frame = 0
 279              		@ frame_needed = 0, uses_anonymous_args = 0
 280              		@ link register save eliminated.
 281              	.LVL13:
 282 0000 10B4     		push	{r4}
 283              		.cfi_def_cfa_offset 4
 284              		.cfi_offset 4, -4
 285              	.LVL14:
 279:USBFS_SCSI_operations.c **** 	cystatus commandStatus = USBFS_MSC_CSW_PASS;
 280:USBFS_SCSI_operations.c **** 	uint8 index = ZERO;
 281:USBFS_SCSI_operations.c **** 	
 282:USBFS_SCSI_operations.c **** 	USBFS_MSC_InEPBuffer[ 0] = INQUIRY_PERIPHERAL_TYPE; 
ARM GAS  C:\Users\linar\AppData\Local\Temp\ccgDfqog.s 			page 11


 286              		.loc 1 282 0
 287 0002 1C4A     		ldr	r2, .L32
 288 0004 0023     		movs	r3, #0
 289 0006 1370     		strb	r3, [r2]
 283:USBFS_SCSI_operations.c **** 	USBFS_MSC_InEPBuffer[ 1] = INQUIRY_REMOVABLE;        
 290              		.loc 1 283 0
 291 0008 8021     		movs	r1, #128
 292 000a 5170     		strb	r1, [r2, #1]
 284:USBFS_SCSI_operations.c **** 	USBFS_MSC_InEPBuffer[ 2] = INQUIRY_NO_STANDARD;      
 293              		.loc 1 284 0
 294 000c 9370     		strb	r3, [r2, #2]
 285:USBFS_SCSI_operations.c **** 	USBFS_MSC_InEPBuffer[ 3] = INQUIRY_RESPONSE_DATA_FORMAT;
 295              		.loc 1 285 0
 296 000e 0124     		movs	r4, #1
 297 0010 D470     		strb	r4, [r2, #3]
 286:USBFS_SCSI_operations.c **** 
 287:USBFS_SCSI_operations.c **** 	USBFS_MSC_InEPBuffer[ 4] = INQUIRY_ADDITIONAL_LENGTH; 
 298              		.loc 1 287 0
 299 0012 2024     		movs	r4, #32
 300 0014 1471     		strb	r4, [r2, #4]
 288:USBFS_SCSI_operations.c **** 	USBFS_MSC_InEPBuffer[ 5] = INQUIRY_SCSI_STORAGE_CONTROLLER_PRESENT; 
 301              		.loc 1 288 0
 302 0016 5171     		strb	r1, [r2, #5]
 289:USBFS_SCSI_operations.c **** 	USBFS_MSC_InEPBuffer[ 6] = INQUIRY_MEDIUM_CHANGER_DEVICE;
 303              		.loc 1 289 0
 304 0018 0821     		movs	r1, #8
 305 001a 9171     		strb	r1, [r2, #6]
 290:USBFS_SCSI_operations.c **** 	USBFS_MSC_InEPBuffer[ 7] = ZERO;
 306              		.loc 1 290 0
 307 001c D371     		strb	r3, [r2, #7]
 291:USBFS_SCSI_operations.c **** 
 292:USBFS_SCSI_operations.c **** 	/* T10 Vendor Identification. */
 293:USBFS_SCSI_operations.c **** 	for(index = ZERO; index < sizeof(vendorIDT10); index++)
 308              		.loc 1 293 0
 309 001e 07E0     		b	.L25
 310              	.LVL15:
 311              	.L26:
 294:USBFS_SCSI_operations.c **** 	{
 295:USBFS_SCSI_operations.c **** 		USBFS_MSC_InEPBuffer[8 + index] = vendorIDT10[index];
 312              		.loc 1 295 0 discriminator 3
 313 0020 03F10802 		add	r2, r3, #8
 314 0024 1449     		ldr	r1, .L32+4
 315 0026 CC5C     		ldrb	r4, [r1, r3]	@ zero_extendqisi2
 316 0028 1249     		ldr	r1, .L32
 317 002a 8C54     		strb	r4, [r1, r2]
 293:USBFS_SCSI_operations.c **** 	{
 318              		.loc 1 293 0 discriminator 3
 319 002c 0133     		adds	r3, r3, #1
 320              	.LVL16:
 321 002e DBB2     		uxtb	r3, r3
 322              	.LVL17:
 323              	.L25:
 293:USBFS_SCSI_operations.c **** 	{
 324              		.loc 1 293 0 is_stmt 0 discriminator 1
 325 0030 052B     		cmp	r3, #5
 326 0032 F5D9     		bls	.L26
 327 0034 0023     		movs	r3, #0
ARM GAS  C:\Users\linar\AppData\Local\Temp\ccgDfqog.s 			page 12


 328              	.LVL18:
 329 0036 08E0     		b	.L27
 330              	.LVL19:
 331              	.L28:
 296:USBFS_SCSI_operations.c **** 	}
 297:USBFS_SCSI_operations.c **** 
 298:USBFS_SCSI_operations.c **** 	/* Product Identification */
 299:USBFS_SCSI_operations.c **** 	for(index = ZERO; index < sizeof(productID); index++)
 300:USBFS_SCSI_operations.c **** 	{
 301:USBFS_SCSI_operations.c **** 		USBFS_MSC_InEPBuffer[16 + index] = productID[index];
 332              		.loc 1 301 0 is_stmt 1 discriminator 3
 333 0038 03F11001 		add	r1, r3, #16
 334 003c 0E4A     		ldr	r2, .L32+4
 335 003e 1A44     		add	r2, r2, r3
 336 0040 147A     		ldrb	r4, [r2, #8]	@ zero_extendqisi2
 337 0042 0C4A     		ldr	r2, .L32
 338 0044 5454     		strb	r4, [r2, r1]
 299:USBFS_SCSI_operations.c **** 	{
 339              		.loc 1 299 0 discriminator 3
 340 0046 0133     		adds	r3, r3, #1
 341              	.LVL20:
 342 0048 DBB2     		uxtb	r3, r3
 343              	.LVL21:
 344              	.L27:
 299:USBFS_SCSI_operations.c **** 	{
 345              		.loc 1 299 0 is_stmt 0 discriminator 1
 346 004a 042B     		cmp	r3, #4
 347 004c F4D9     		bls	.L28
 348 004e 0023     		movs	r3, #0
 349              	.LVL22:
 350 0050 08E0     		b	.L29
 351              	.LVL23:
 352              	.L30:
 302:USBFS_SCSI_operations.c **** 	}
 303:USBFS_SCSI_operations.c **** 
 304:USBFS_SCSI_operations.c **** 	/* Product Revision Level */
 305:USBFS_SCSI_operations.c **** 	for(index = ZERO; index < sizeof(productRev); index++)
 306:USBFS_SCSI_operations.c **** 	{
 307:USBFS_SCSI_operations.c **** 		USBFS_MSC_InEPBuffer[32 + index] = productRev[index];
 353              		.loc 1 307 0 is_stmt 1 discriminator 3
 354 0052 03F12001 		add	r1, r3, #32
 355 0056 084A     		ldr	r2, .L32+4
 356 0058 1A44     		add	r2, r2, r3
 357 005a 147C     		ldrb	r4, [r2, #16]	@ zero_extendqisi2
 358 005c 054A     		ldr	r2, .L32
 359 005e 5454     		strb	r4, [r2, r1]
 305:USBFS_SCSI_operations.c **** 	{
 360              		.loc 1 305 0 discriminator 3
 361 0060 0133     		adds	r3, r3, #1
 362              	.LVL24:
 363 0062 DBB2     		uxtb	r3, r3
 364              	.LVL25:
 365              	.L29:
 305:USBFS_SCSI_operations.c **** 	{
 366              		.loc 1 305 0 is_stmt 0 discriminator 1
 367 0064 042B     		cmp	r3, #4
 368 0066 F4D9     		bls	.L30
ARM GAS  C:\Users\linar\AppData\Local\Temp\ccgDfqog.s 			page 13


 308:USBFS_SCSI_operations.c **** 	}
 309:USBFS_SCSI_operations.c **** 
 310:USBFS_SCSI_operations.c **** 	*numOfBytes = 36;
 369              		.loc 1 310 0 is_stmt 1
 370 0068 2423     		movs	r3, #36
 371              	.LVL26:
 372 006a 0370     		strb	r3, [r0]
 311:USBFS_SCSI_operations.c **** 	
 312:USBFS_SCSI_operations.c **** 	return(commandStatus);
 313:USBFS_SCSI_operations.c **** }
 373              		.loc 1 313 0
 374 006c 0020     		movs	r0, #0
 375              	.LVL27:
 376 006e 10BC     		pop	{r4}
 377              		.cfi_restore 4
 378              		.cfi_def_cfa_offset 0
 379 0070 7047     		bx	lr
 380              	.L33:
 381 0072 00BF     		.align	2
 382              	.L32:
 383 0074 00000000 		.word	USBFS_MSC_InEPBuffer
 384 0078 00000000 		.word	.LANCHOR1
 385              		.cfi_endproc
 386              	.LFE67:
 387              		.size	USBFS_MSC_SCSI_Inquiry, .-USBFS_MSC_SCSI_Inquiry
 388              		.section	.text.USBFS_MSC_SCSI_ModeSelect6,"ax",%progbits
 389              		.align	2
 390              		.global	USBFS_MSC_SCSI_ModeSelect6
 391              		.thumb
 392              		.thumb_func
 393              		.type	USBFS_MSC_SCSI_ModeSelect6, %function
 394              	USBFS_MSC_SCSI_ModeSelect6:
 395              	.LFB68:
 314:USBFS_SCSI_operations.c **** 
 315:USBFS_SCSI_operations.c **** /*******************************************************************************
 316:USBFS_SCSI_operations.c **** * Function Name: USBFS_MSC_SCSI_ModeSelect6()
 317:USBFS_SCSI_operations.c **** ********************************************************************************
 318:USBFS_SCSI_operations.c **** * Summary:
 319:USBFS_SCSI_operations.c **** *  This command is not supported as of now.
 320:USBFS_SCSI_operations.c **** *
 321:USBFS_SCSI_operations.c **** * Parameters:
 322:USBFS_SCSI_operations.c **** *  void
 323:USBFS_SCSI_operations.c **** *
 324:USBFS_SCSI_operations.c **** * Return:
 325:USBFS_SCSI_operations.c **** *  cystatus: FAIL
 326:USBFS_SCSI_operations.c **** *
 327:USBFS_SCSI_operations.c **** *******************************************************************************/
 328:USBFS_SCSI_operations.c **** cystatus USBFS_MSC_SCSI_ModeSelect6(uint8 *numOfBytes)
 329:USBFS_SCSI_operations.c **** {
 396              		.loc 1 329 0
 397              		.cfi_startproc
 398              		@ args = 0, pretend = 0, frame = 0
 399              		@ frame_needed = 0, uses_anonymous_args = 0
 400              		@ link register save eliminated.
 401              	.LVL28:
 330:USBFS_SCSI_operations.c **** 	cystatus commandStatus = USBFS_MSC_CSW_FAIL;
 331:USBFS_SCSI_operations.c **** 	
ARM GAS  C:\Users\linar\AppData\Local\Temp\ccgDfqog.s 			page 14


 332:USBFS_SCSI_operations.c **** 	commandFailed = TRUE;
 402              		.loc 1 332 0
 403 0000 0123     		movs	r3, #1
 404 0002 034A     		ldr	r2, .L35
 405 0004 1370     		strb	r3, [r2]
 333:USBFS_SCSI_operations.c **** 	
 334:USBFS_SCSI_operations.c **** 	*numOfBytes = ZERO;
 406              		.loc 1 334 0
 407 0006 0022     		movs	r2, #0
 408 0008 0270     		strb	r2, [r0]
 335:USBFS_SCSI_operations.c **** 	
 336:USBFS_SCSI_operations.c **** 	return(commandStatus);
 337:USBFS_SCSI_operations.c **** }
 409              		.loc 1 337 0
 410 000a 1846     		mov	r0, r3
 411              	.LVL29:
 412 000c 7047     		bx	lr
 413              	.L36:
 414 000e 00BF     		.align	2
 415              	.L35:
 416 0010 00000000 		.word	.LANCHOR0
 417              		.cfi_endproc
 418              	.LFE68:
 419              		.size	USBFS_MSC_SCSI_ModeSelect6, .-USBFS_MSC_SCSI_ModeSelect6
 420              		.section	.text.USBFS_MSC_SCSI_ModeSense6,"ax",%progbits
 421              		.align	2
 422              		.global	USBFS_MSC_SCSI_ModeSense6
 423              		.thumb
 424              		.thumb_func
 425              		.type	USBFS_MSC_SCSI_ModeSense6, %function
 426              	USBFS_MSC_SCSI_ModeSense6:
 427              	.LFB69:
 338:USBFS_SCSI_operations.c **** 
 339:USBFS_SCSI_operations.c **** /*******************************************************************************
 340:USBFS_SCSI_operations.c **** * Function Name: USBFS_MSC_SCSI_ModeSense6()
 341:USBFS_SCSI_operations.c **** ********************************************************************************
 342:USBFS_SCSI_operations.c **** * Summary:
 343:USBFS_SCSI_operations.c **** *  Responds to the SCSI Mode Sense6 command. (Ref: Section 4.3 of SCSI Manual)
 344:USBFS_SCSI_operations.c **** *
 345:USBFS_SCSI_operations.c **** * Parameters:
 346:USBFS_SCSI_operations.c **** *  void
 347:USBFS_SCSI_operations.c **** *
 348:USBFS_SCSI_operations.c **** * Return:
 349:USBFS_SCSI_operations.c **** *  cystatus: PASS
 350:USBFS_SCSI_operations.c **** *
 351:USBFS_SCSI_operations.c **** *******************************************************************************/
 352:USBFS_SCSI_operations.c **** cystatus USBFS_MSC_SCSI_ModeSense6(uint8 *numOfBytes)
 353:USBFS_SCSI_operations.c **** {
 428              		.loc 1 353 0
 429              		.cfi_startproc
 430              		@ args = 0, pretend = 0, frame = 0
 431              		@ frame_needed = 0, uses_anonymous_args = 0
 432              		@ link register save eliminated.
 433              	.LVL30:
 354:USBFS_SCSI_operations.c **** 	cystatus commandStatus = USBFS_MSC_CSW_PASS;
 355:USBFS_SCSI_operations.c **** 	
 356:USBFS_SCSI_operations.c **** 	USBFS_MSC_InEPBuffer[ 0] = MODE_SENSE6_BLOCK_LENGTH;
ARM GAS  C:\Users\linar\AppData\Local\Temp\ccgDfqog.s 			page 15


 434              		.loc 1 356 0
 435 0000 054A     		ldr	r2, .L38
 436 0002 0323     		movs	r3, #3
 437 0004 1370     		strb	r3, [r2]
 357:USBFS_SCSI_operations.c **** 	USBFS_MSC_InEPBuffer[ 1] = DEFAULT_MEDIUM_TYPE;
 438              		.loc 1 357 0
 439 0006 0023     		movs	r3, #0
 440 0008 5370     		strb	r3, [r2, #1]
 358:USBFS_SCSI_operations.c **** 	USBFS_MSC_InEPBuffer[ 2] = ZERO;
 441              		.loc 1 358 0
 442 000a 9370     		strb	r3, [r2, #2]
 359:USBFS_SCSI_operations.c **** 	USBFS_MSC_InEPBuffer[ 3] = ZERO;
 443              		.loc 1 359 0
 444 000c D370     		strb	r3, [r2, #3]
 360:USBFS_SCSI_operations.c **** 
 361:USBFS_SCSI_operations.c **** 	*numOfBytes = 4;
 445              		.loc 1 361 0
 446 000e 0422     		movs	r2, #4
 447 0010 0270     		strb	r2, [r0]
 362:USBFS_SCSI_operations.c **** 	
 363:USBFS_SCSI_operations.c **** 	return(commandStatus);
 364:USBFS_SCSI_operations.c **** }
 448              		.loc 1 364 0
 449 0012 1846     		mov	r0, r3
 450              	.LVL31:
 451 0014 7047     		bx	lr
 452              	.L39:
 453 0016 00BF     		.align	2
 454              	.L38:
 455 0018 00000000 		.word	USBFS_MSC_InEPBuffer
 456              		.cfi_endproc
 457              	.LFE69:
 458              		.size	USBFS_MSC_SCSI_ModeSense6, .-USBFS_MSC_SCSI_ModeSense6
 459              		.section	.text.USBFS_MSC_SCSI_ModeSense10,"ax",%progbits
 460              		.align	2
 461              		.global	USBFS_MSC_SCSI_ModeSense10
 462              		.thumb
 463              		.thumb_func
 464              		.type	USBFS_MSC_SCSI_ModeSense10, %function
 465              	USBFS_MSC_SCSI_ModeSense10:
 466              	.LFB70:
 365:USBFS_SCSI_operations.c **** 
 366:USBFS_SCSI_operations.c **** /*******************************************************************************
 367:USBFS_SCSI_operations.c **** * Function Name: USBFS_MSC_SCSI_ModeSense10()
 368:USBFS_SCSI_operations.c **** ********************************************************************************
 369:USBFS_SCSI_operations.c **** * Summary:
 370:USBFS_SCSI_operations.c **** *  Polls the status of the programmer 
 371:USBFS_SCSI_operations.c **** *
 372:USBFS_SCSI_operations.c **** * Parameters:
 373:USBFS_SCSI_operations.c **** *  void
 374:USBFS_SCSI_operations.c **** *
 375:USBFS_SCSI_operations.c **** * Return:
 376:USBFS_SCSI_operations.c **** *  cystatus: PASS
 377:USBFS_SCSI_operations.c **** *
 378:USBFS_SCSI_operations.c **** *******************************************************************************/
 379:USBFS_SCSI_operations.c **** cystatus USBFS_MSC_SCSI_ModeSense10(uint8 *numOfBytes)
 380:USBFS_SCSI_operations.c **** {
ARM GAS  C:\Users\linar\AppData\Local\Temp\ccgDfqog.s 			page 16


 467              		.loc 1 380 0
 468              		.cfi_startproc
 469              		@ args = 0, pretend = 0, frame = 0
 470              		@ frame_needed = 0, uses_anonymous_args = 0
 471              	.LVL32:
 472 0000 38B5     		push	{r3, r4, r5, lr}
 473              		.cfi_def_cfa_offset 16
 474              		.cfi_offset 3, -16
 475              		.cfi_offset 4, -12
 476              		.cfi_offset 5, -8
 477              		.cfi_offset 14, -4
 478 0002 0546     		mov	r5, r0
 479              	.LVL33:
 381:USBFS_SCSI_operations.c **** 	cystatus commandStatus = USBFS_MSC_CSW_PASS;
 382:USBFS_SCSI_operations.c **** 	
 383:USBFS_SCSI_operations.c **** 	memset(USBFS_MSC_InEPBuffer, ZERO, *numOfBytes);
 480              		.loc 1 383 0
 481 0004 064C     		ldr	r4, .L42
 482 0006 0278     		ldrb	r2, [r0]	@ zero_extendqisi2
 483 0008 0021     		movs	r1, #0
 484 000a 2046     		mov	r0, r4
 485              	.LVL34:
 486 000c FFF7FEFF 		bl	memset
 487              	.LVL35:
 384:USBFS_SCSI_operations.c **** 	
 385:USBFS_SCSI_operations.c **** 	USBFS_MSC_InEPBuffer[ 1] = MODE_SENSE10_BLOCK_LENGTH;
 488              		.loc 1 385 0
 489 0010 0623     		movs	r3, #6
 490 0012 6370     		strb	r3, [r4, #1]
 386:USBFS_SCSI_operations.c **** 	USBFS_MSC_InEPBuffer[ 2] = DEFAULT_MEDIUM_TYPE;
 491              		.loc 1 386 0
 492 0014 0020     		movs	r0, #0
 493 0016 A070     		strb	r0, [r4, #2]
 387:USBFS_SCSI_operations.c **** 
 388:USBFS_SCSI_operations.c **** 	*numOfBytes = 8;
 494              		.loc 1 388 0
 495 0018 0823     		movs	r3, #8
 496 001a 2B70     		strb	r3, [r5]
 389:USBFS_SCSI_operations.c **** 	return(commandStatus);
 390:USBFS_SCSI_operations.c **** }
 497              		.loc 1 390 0
 498 001c 38BD     		pop	{r3, r4, r5, pc}
 499              	.LVL36:
 500              	.L43:
 501 001e 00BF     		.align	2
 502              	.L42:
 503 0020 00000000 		.word	USBFS_MSC_InEPBuffer
 504              		.cfi_endproc
 505              	.LFE70:
 506              		.size	USBFS_MSC_SCSI_ModeSense10, .-USBFS_MSC_SCSI_ModeSense10
 507              		.section	.text.USBFS_MSC_SCSI_StartStopUnit,"ax",%progbits
 508              		.align	2
 509              		.global	USBFS_MSC_SCSI_StartStopUnit
 510              		.thumb
 511              		.thumb_func
 512              		.type	USBFS_MSC_SCSI_StartStopUnit, %function
 513              	USBFS_MSC_SCSI_StartStopUnit:
ARM GAS  C:\Users\linar\AppData\Local\Temp\ccgDfqog.s 			page 17


 514              	.LFB71:
 391:USBFS_SCSI_operations.c **** 	
 392:USBFS_SCSI_operations.c **** /*******************************************************************************
 393:USBFS_SCSI_operations.c **** * Function Name: USBFS_MSC_SCSI_StartStopUnit()
 394:USBFS_SCSI_operations.c **** ********************************************************************************
 395:USBFS_SCSI_operations.c **** * Summary:
 396:USBFS_SCSI_operations.c **** *  This command responds to the eject/mount requests from the host.
 397:USBFS_SCSI_operations.c **** *
 398:USBFS_SCSI_operations.c **** * Parameters:
 399:USBFS_SCSI_operations.c **** *  void
 400:USBFS_SCSI_operations.c **** *
 401:USBFS_SCSI_operations.c **** * Return:
 402:USBFS_SCSI_operations.c **** *  cystatus: FAIL
 403:USBFS_SCSI_operations.c **** *
 404:USBFS_SCSI_operations.c **** *******************************************************************************/
 405:USBFS_SCSI_operations.c **** cystatus USBFS_MSC_SCSI_StartStopUnit(uint8 ejectIndicator)
 406:USBFS_SCSI_operations.c **** {
 515              		.loc 1 406 0
 516              		.cfi_startproc
 517              		@ args = 0, pretend = 0, frame = 0
 518              		@ frame_needed = 0, uses_anonymous_args = 0
 519              		@ link register save eliminated.
 520              	.LVL37:
 407:USBFS_SCSI_operations.c **** 	cystatus commandStatus = USBFS_MSC_CSW_PASS;
 408:USBFS_SCSI_operations.c **** 	
 409:USBFS_SCSI_operations.c **** 	if((ejectIndicator & LOEJ_BIT_FIELD) != ZERO)
 521              		.loc 1 409 0
 522 0000 10F0020F 		tst	r0, #2
 523 0004 09D0     		beq	.L45
 410:USBFS_SCSI_operations.c **** 	{
 411:USBFS_SCSI_operations.c **** 		if((ejectIndicator & START_BIT_FIELD) == TRUE)
 524              		.loc 1 411 0
 525 0006 10F0010F 		tst	r0, #1
 526 000a 03D0     		beq	.L46
 412:USBFS_SCSI_operations.c **** 		{
 413:USBFS_SCSI_operations.c **** 			mediaEjectedState = FALSE;
 527              		.loc 1 413 0
 528 000c 0022     		movs	r2, #0
 529 000e 044B     		ldr	r3, .L47
 530 0010 5A70     		strb	r2, [r3, #1]
 531 0012 02E0     		b	.L45
 532              	.L46:
 414:USBFS_SCSI_operations.c **** 		}
 415:USBFS_SCSI_operations.c **** 		else
 416:USBFS_SCSI_operations.c **** 		{
 417:USBFS_SCSI_operations.c **** 			mediaEjectedState = TRUE;
 533              		.loc 1 417 0
 534 0014 0122     		movs	r2, #1
 535 0016 024B     		ldr	r3, .L47
 536 0018 5A70     		strb	r2, [r3, #1]
 537              	.L45:
 418:USBFS_SCSI_operations.c **** 		}
 419:USBFS_SCSI_operations.c **** 	}
 420:USBFS_SCSI_operations.c **** 	
 421:USBFS_SCSI_operations.c **** 	return(commandStatus);	
 422:USBFS_SCSI_operations.c **** }
 538              		.loc 1 422 0
ARM GAS  C:\Users\linar\AppData\Local\Temp\ccgDfqog.s 			page 18


 539 001a 0020     		movs	r0, #0
 540              	.LVL38:
 541 001c 7047     		bx	lr
 542              	.L48:
 543 001e 00BF     		.align	2
 544              	.L47:
 545 0020 00000000 		.word	.LANCHOR0
 546              		.cfi_endproc
 547              	.LFE71:
 548              		.size	USBFS_MSC_SCSI_StartStopUnit, .-USBFS_MSC_SCSI_StartStopUnit
 549              		.section	.text.USBFS_MSC_SCSI_ReadFormatCapacities,"ax",%progbits
 550              		.align	2
 551              		.global	USBFS_MSC_SCSI_ReadFormatCapacities
 552              		.thumb
 553              		.thumb_func
 554              		.type	USBFS_MSC_SCSI_ReadFormatCapacities, %function
 555              	USBFS_MSC_SCSI_ReadFormatCapacities:
 556              	.LFB72:
 423:USBFS_SCSI_operations.c **** 
 424:USBFS_SCSI_operations.c **** /*******************************************************************************
 425:USBFS_SCSI_operations.c **** * Function Name: USBFS_MSC_SCSI_ReadFormatCapacities()
 426:USBFS_SCSI_operations.c **** ********************************************************************************
 427:USBFS_SCSI_operations.c **** * Summary:
 428:USBFS_SCSI_operations.c **** *  Supported since required by Windows. 
 429:USBFS_SCSI_operations.c **** *  Ref: ftp://www.t10.org/t10/t10r/2003/r0310162.htm
 430:USBFS_SCSI_operations.c **** *  http://janaxelson.com/mass_storage_faq.htm
 431:USBFS_SCSI_operations.c **** *  http://www.13thmonkey.org/documentation/SCSI/mmc2r11a.pdf
 432:USBFS_SCSI_operations.c **** * 
 433:USBFS_SCSI_operations.c **** *
 434:USBFS_SCSI_operations.c **** * Parameters:
 435:USBFS_SCSI_operations.c **** *  void
 436:USBFS_SCSI_operations.c **** *
 437:USBFS_SCSI_operations.c **** * Return:
 438:USBFS_SCSI_operations.c **** *  cystatus: PASS
 439:USBFS_SCSI_operations.c **** *
 440:USBFS_SCSI_operations.c **** *******************************************************************************/
 441:USBFS_SCSI_operations.c **** cystatus USBFS_MSC_SCSI_ReadFormatCapacities(uint8 *numOfBytes)
 442:USBFS_SCSI_operations.c **** {
 557              		.loc 1 442 0
 558              		.cfi_startproc
 559              		@ args = 0, pretend = 0, frame = 0
 560              		@ frame_needed = 0, uses_anonymous_args = 0
 561              		@ link register save eliminated.
 562              	.LVL39:
 443:USBFS_SCSI_operations.c **** 	cystatus commandStatus = USBFS_MSC_CSW_PASS;
 444:USBFS_SCSI_operations.c **** 	
 445:USBFS_SCSI_operations.c **** 	USBFS_MSC_InEPBuffer[ 0] = 0x00;
 563              		.loc 1 445 0
 564 0000 0A4B     		ldr	r3, .L50
 565 0002 0022     		movs	r2, #0
 566 0004 1A70     		strb	r2, [r3]
 446:USBFS_SCSI_operations.c **** 	USBFS_MSC_InEPBuffer[ 1] = 0x00;
 567              		.loc 1 446 0
 568 0006 5A70     		strb	r2, [r3, #1]
 447:USBFS_SCSI_operations.c **** 	USBFS_MSC_InEPBuffer[ 2] = 0x00;
 569              		.loc 1 447 0
 570 0008 9A70     		strb	r2, [r3, #2]
ARM GAS  C:\Users\linar\AppData\Local\Temp\ccgDfqog.s 			page 19


 448:USBFS_SCSI_operations.c **** 	USBFS_MSC_InEPBuffer[ 3] = FORMAT_CAP_LIST_LENGTH;
 571              		.loc 1 448 0
 572 000a 0821     		movs	r1, #8
 573 000c D970     		strb	r1, [r3, #3]
 449:USBFS_SCSI_operations.c **** 
 450:USBFS_SCSI_operations.c **** 	/* Number of Blocks */
 451:USBFS_SCSI_operations.c **** 	USBFS_MSC_InEPBuffer[ 4] = HI8(HI16(USBFS_MSC_NUM_OF_BLOCKS)); 
 574              		.loc 1 451 0
 575 000e 1A71     		strb	r2, [r3, #4]
 452:USBFS_SCSI_operations.c **** 	USBFS_MSC_InEPBuffer[ 5] = LO8(HI16(USBFS_MSC_NUM_OF_BLOCKS)); 
 576              		.loc 1 452 0
 577 0010 5A71     		strb	r2, [r3, #5]
 453:USBFS_SCSI_operations.c **** 	USBFS_MSC_InEPBuffer[ 6] = HI8(LO16(USBFS_MSC_NUM_OF_BLOCKS)); 
 578              		.loc 1 453 0
 579 0012 0421     		movs	r1, #4
 580 0014 9971     		strb	r1, [r3, #6]
 454:USBFS_SCSI_operations.c **** 	USBFS_MSC_InEPBuffer[ 7] = LO8(LO16(USBFS_MSC_NUM_OF_BLOCKS)); 
 581              		.loc 1 454 0
 582 0016 9321     		movs	r1, #147
 583 0018 D971     		strb	r1, [r3, #7]
 455:USBFS_SCSI_operations.c **** 
 456:USBFS_SCSI_operations.c **** 	/* Block Length */
 457:USBFS_SCSI_operations.c **** 	USBFS_MSC_InEPBuffer[ 8] = FORMAT_CAP_FORMATTED_MEDIA;        
 584              		.loc 1 457 0
 585 001a 0221     		movs	r1, #2
 586 001c 1972     		strb	r1, [r3, #8]
 458:USBFS_SCSI_operations.c **** 	USBFS_MSC_InEPBuffer[ 9] = LO8(HI16(USBFS_MSC_BLOCKSIZE)); 
 587              		.loc 1 458 0
 588 001e 5A72     		strb	r2, [r3, #9]
 459:USBFS_SCSI_operations.c **** 	USBFS_MSC_InEPBuffer[10] = HI8(LO16(USBFS_MSC_BLOCKSIZE)); 
 589              		.loc 1 459 0
 590 0020 9972     		strb	r1, [r3, #10]
 460:USBFS_SCSI_operations.c **** 	USBFS_MSC_InEPBuffer[11] = LO8(LO16(USBFS_MSC_BLOCKSIZE)); 
 591              		.loc 1 460 0
 592 0022 DA72     		strb	r2, [r3, #11]
 461:USBFS_SCSI_operations.c **** 
 462:USBFS_SCSI_operations.c **** 	*numOfBytes = 12;
 593              		.loc 1 462 0
 594 0024 0C23     		movs	r3, #12
 595 0026 0370     		strb	r3, [r0]
 463:USBFS_SCSI_operations.c **** 	
 464:USBFS_SCSI_operations.c **** 	return(commandStatus);
 465:USBFS_SCSI_operations.c **** }
 596              		.loc 1 465 0
 597 0028 1046     		mov	r0, r2
 598              	.LVL40:
 599 002a 7047     		bx	lr
 600              	.L51:
 601              		.align	2
 602              	.L50:
 603 002c 00000000 		.word	USBFS_MSC_InEPBuffer
 604              		.cfi_endproc
 605              	.LFE72:
 606              		.size	USBFS_MSC_SCSI_ReadFormatCapacities, .-USBFS_MSC_SCSI_ReadFormatCapacities
 607              		.section	.text.USBFS_MSC_SCSI_ReadCapacity,"ax",%progbits
 608              		.align	2
 609              		.global	USBFS_MSC_SCSI_ReadCapacity
ARM GAS  C:\Users\linar\AppData\Local\Temp\ccgDfqog.s 			page 20


 610              		.thumb
 611              		.thumb_func
 612              		.type	USBFS_MSC_SCSI_ReadCapacity, %function
 613              	USBFS_MSC_SCSI_ReadCapacity:
 614              	.LFB73:
 466:USBFS_SCSI_operations.c **** 
 467:USBFS_SCSI_operations.c **** /*******************************************************************************
 468:USBFS_SCSI_operations.c **** * Function Name: USBFS_MSC_SCSI_ReadCapacity()
 469:USBFS_SCSI_operations.c **** ********************************************************************************
 470:USBFS_SCSI_operations.c **** * Summary:
 471:USBFS_SCSI_operations.c **** *  Polls the status of the programmer 
 472:USBFS_SCSI_operations.c **** *
 473:USBFS_SCSI_operations.c **** * Parameters:
 474:USBFS_SCSI_operations.c **** *  void
 475:USBFS_SCSI_operations.c **** *
 476:USBFS_SCSI_operations.c **** * Return:
 477:USBFS_SCSI_operations.c **** *  cystatus: PASS
 478:USBFS_SCSI_operations.c **** *
 479:USBFS_SCSI_operations.c **** *******************************************************************************/
 480:USBFS_SCSI_operations.c **** cystatus USBFS_MSC_SCSI_ReadCapacity(uint8 *numOfBytes)
 481:USBFS_SCSI_operations.c **** {
 615              		.loc 1 481 0
 616              		.cfi_startproc
 617              		@ args = 0, pretend = 0, frame = 0
 618              		@ frame_needed = 0, uses_anonymous_args = 0
 619              		@ link register save eliminated.
 620              	.LVL41:
 482:USBFS_SCSI_operations.c **** 	cystatus commandStatus = USBFS_MSC_CSW_PASS;
 483:USBFS_SCSI_operations.c **** 	
 484:USBFS_SCSI_operations.c **** 	/* Returned Logical Block Address of Last Block */
 485:USBFS_SCSI_operations.c **** 	USBFS_MSC_InEPBuffer[ 0] = HI8(HI16(USBFS_MSC_TOTAL_MEM_SIZE)); 
 621              		.loc 1 485 0
 622 0000 084B     		ldr	r3, .L53
 623 0002 0022     		movs	r2, #0
 624 0004 1A70     		strb	r2, [r3]
 486:USBFS_SCSI_operations.c **** 	USBFS_MSC_InEPBuffer[ 1] = LO8(HI16(USBFS_MSC_TOTAL_MEM_SIZE)); 
 625              		.loc 1 486 0
 626 0006 0921     		movs	r1, #9
 627 0008 5970     		strb	r1, [r3, #1]
 487:USBFS_SCSI_operations.c **** 	USBFS_MSC_InEPBuffer[ 2] = HI8(LO16(USBFS_MSC_TOTAL_MEM_SIZE)); 
 628              		.loc 1 487 0
 629 000a 2721     		movs	r1, #39
 630 000c 9970     		strb	r1, [r3, #2]
 488:USBFS_SCSI_operations.c **** 	USBFS_MSC_InEPBuffer[ 3] = LO8(LO16(USBFS_MSC_TOTAL_MEM_SIZE)); 
 631              		.loc 1 488 0
 632 000e C021     		movs	r1, #192
 633 0010 D970     		strb	r1, [r3, #3]
 489:USBFS_SCSI_operations.c **** 
 490:USBFS_SCSI_operations.c **** 	/* Block Length */
 491:USBFS_SCSI_operations.c **** 	USBFS_MSC_InEPBuffer[ 4] = HI8(HI16(USBFS_MSC_BLOCKSIZE)); 
 634              		.loc 1 491 0
 635 0012 1A71     		strb	r2, [r3, #4]
 492:USBFS_SCSI_operations.c **** 	USBFS_MSC_InEPBuffer[ 5] = LO8(HI16(USBFS_MSC_BLOCKSIZE)); 
 636              		.loc 1 492 0
 637 0014 5A71     		strb	r2, [r3, #5]
 493:USBFS_SCSI_operations.c **** 	USBFS_MSC_InEPBuffer[ 6] = HI8(LO16(USBFS_MSC_BLOCKSIZE)); 
 638              		.loc 1 493 0
ARM GAS  C:\Users\linar\AppData\Local\Temp\ccgDfqog.s 			page 21


 639 0016 0221     		movs	r1, #2
 640 0018 9971     		strb	r1, [r3, #6]
 494:USBFS_SCSI_operations.c **** 	USBFS_MSC_InEPBuffer[ 7] = LO8(LO16(USBFS_MSC_BLOCKSIZE)); 
 641              		.loc 1 494 0
 642 001a DA71     		strb	r2, [r3, #7]
 495:USBFS_SCSI_operations.c **** 
 496:USBFS_SCSI_operations.c **** 	*numOfBytes = 8;
 643              		.loc 1 496 0
 644 001c 0823     		movs	r3, #8
 645 001e 0370     		strb	r3, [r0]
 497:USBFS_SCSI_operations.c **** 	
 498:USBFS_SCSI_operations.c **** 	return(commandStatus);
 499:USBFS_SCSI_operations.c **** }
 646              		.loc 1 499 0
 647 0020 1046     		mov	r0, r2
 648              	.LVL42:
 649 0022 7047     		bx	lr
 650              	.L54:
 651              		.align	2
 652              	.L53:
 653 0024 00000000 		.word	USBFS_MSC_InEPBuffer
 654              		.cfi_endproc
 655              	.LFE73:
 656              		.size	USBFS_MSC_SCSI_ReadCapacity, .-USBFS_MSC_SCSI_ReadCapacity
 657              		.section	.text.USBFS_MSC_SCSI_ModeSelect10,"ax",%progbits
 658              		.align	2
 659              		.global	USBFS_MSC_SCSI_ModeSelect10
 660              		.thumb
 661              		.thumb_func
 662              		.type	USBFS_MSC_SCSI_ModeSelect10, %function
 663              	USBFS_MSC_SCSI_ModeSelect10:
 664              	.LFB74:
 500:USBFS_SCSI_operations.c **** 
 501:USBFS_SCSI_operations.c **** /*******************************************************************************
 502:USBFS_SCSI_operations.c **** * Function Name: USBFS_MSC_SCSI_ModeSelect10()
 503:USBFS_SCSI_operations.c **** ********************************************************************************
 504:USBFS_SCSI_operations.c **** * Summary:
 505:USBFS_SCSI_operations.c **** *  This command is not supported as of now.
 506:USBFS_SCSI_operations.c **** *
 507:USBFS_SCSI_operations.c **** * Parameters:
 508:USBFS_SCSI_operations.c **** *  void
 509:USBFS_SCSI_operations.c **** *
 510:USBFS_SCSI_operations.c **** * Return:
 511:USBFS_SCSI_operations.c **** *  cystatus: FAIL
 512:USBFS_SCSI_operations.c **** *
 513:USBFS_SCSI_operations.c **** *******************************************************************************/
 514:USBFS_SCSI_operations.c **** cystatus USBFS_MSC_SCSI_ModeSelect10(uint8 *numOfBytes)
 515:USBFS_SCSI_operations.c **** {
 665              		.loc 1 515 0
 666              		.cfi_startproc
 667              		@ args = 0, pretend = 0, frame = 0
 668              		@ frame_needed = 0, uses_anonymous_args = 0
 669              		@ link register save eliminated.
 670              	.LVL43:
 516:USBFS_SCSI_operations.c **** 	cystatus commandStatus = USBFS_MSC_CSW_FAIL;
 517:USBFS_SCSI_operations.c **** 	
 518:USBFS_SCSI_operations.c **** 	commandFailed = TRUE;
ARM GAS  C:\Users\linar\AppData\Local\Temp\ccgDfqog.s 			page 22


 671              		.loc 1 518 0
 672 0000 0123     		movs	r3, #1
 673 0002 034A     		ldr	r2, .L56
 674 0004 1370     		strb	r3, [r2]
 519:USBFS_SCSI_operations.c **** 	
 520:USBFS_SCSI_operations.c **** 	*numOfBytes = ZERO;
 675              		.loc 1 520 0
 676 0006 0022     		movs	r2, #0
 677 0008 0270     		strb	r2, [r0]
 521:USBFS_SCSI_operations.c **** 	
 522:USBFS_SCSI_operations.c **** 	return(commandStatus);
 523:USBFS_SCSI_operations.c **** }
 678              		.loc 1 523 0
 679 000a 1846     		mov	r0, r3
 680              	.LVL44:
 681 000c 7047     		bx	lr
 682              	.L57:
 683 000e 00BF     		.align	2
 684              	.L56:
 685 0010 00000000 		.word	.LANCHOR0
 686              		.cfi_endproc
 687              	.LFE74:
 688              		.size	USBFS_MSC_SCSI_ModeSelect10, .-USBFS_MSC_SCSI_ModeSelect10
 689              		.global	productRev
 690              		.global	productID
 691              		.global	vendorIDT10
 692              		.global	statusFileTimer
 693              		.global	forceOS
 694              		.comm	USBFS_MSC_OutEPBuffer,64,4
 695              		.comm	USBFS_MSC_InEPBuffer,64,4
 696              		.data
 697              		.align	2
 698              		.set	.LANCHOR1,. + 0
 699              		.type	vendorIDT10, %object
 700              		.size	vendorIDT10, 6
 701              	vendorIDT10:
 702 0000 414E4B53 		.ascii	"ANKS \000"
 702      2000
 703 0006 0000     		.space	2
 704              		.type	productID, %object
 705              		.size	productID, 5
 706              	productID:
 707 0008 48494D41 		.ascii	"HIMA\000"
 707      00
 708 000d 000000   		.space	3
 709              		.type	productRev, %object
 710              		.size	productRev, 5
 711              	productRev:
 712 0010 30323139 		.ascii	"0219\000"
 712      00
 713              		.bss
 714              		.set	.LANCHOR0,. + 0
 715              		.type	commandFailed, %object
 716              		.size	commandFailed, 1
 717              	commandFailed:
 718 0000 00       		.space	1
 719              		.type	mediaEjectedState, %object
ARM GAS  C:\Users\linar\AppData\Local\Temp\ccgDfqog.s 			page 23


 720              		.size	mediaEjectedState, 1
 721              	mediaEjectedState:
 722 0001 00       		.space	1
 723              		.type	forceOS, %object
 724              		.size	forceOS, 1
 725              	forceOS:
 726 0002 00       		.space	1
 727              		.type	statusFileTimer, %object
 728              		.size	statusFileTimer, 1
 729              	statusFileTimer:
 730 0003 00       		.space	1
 731              		.text
 732              	.Letext0:
 733              		.file 2 "c:\\program files (x86)\\cypress\\psoc creator\\4.4\\psoc creator\\import\\gnu\\arm\\5.4.
 734              		.file 3 "c:\\program files (x86)\\cypress\\psoc creator\\4.4\\psoc creator\\import\\gnu\\arm\\5.4.
 735              		.file 4 "Generated_Source\\PSoC5/cytypes.h"
 736              		.file 5 "Generated_Source\\PSoC5/core_cm3.h"
 737              		.file 6 "USBFS_msc_cust.h"