ARM GAS  C:\Users\linar\AppData\Local\Temp\cckt45FP.s 			page 1


   1              		.syntax unified
   2              		.cpu cortex-m3
   3              		.fpu softvfp
   4              		.eabi_attribute 20, 1
   5              		.eabi_attribute 21, 1
   6              		.eabi_attribute 23, 3
   7              		.eabi_attribute 24, 1
   8              		.eabi_attribute 25, 1
   9              		.eabi_attribute 26, 1
  10              		.eabi_attribute 30, 1
  11              		.eabi_attribute 34, 1
  12              		.eabi_attribute 18, 4
  13              		.thumb
  14              		.syntax unified
  15              		.file	"USBFS_msc_cust.c"
  16              		.text
  17              	.Ltext0:
  18              		.cfi_sections	.debug_frame
  19              		.section	.text.USBFS_MSC_ReadOutEP,"ax",%progbits
  20              		.align	2
  21              		.thumb
  22              		.thumb_func
  23              		.type	USBFS_MSC_ReadOutEP, %function
  24              	USBFS_MSC_ReadOutEP:
  25              	.LFB64:
  26              		.file 1 "USBFS_msc_cust.c"
   1:USBFS_msc_cust.c **** /*****************************************************************************
   2:USBFS_msc_cust.c **** * File Name: USBFS_msc.c
   3:USBFS_msc_cust.c **** *
   4:USBFS_msc_cust.c **** * Version 2.19
   5:USBFS_msc_cust.c **** *
   6:USBFS_msc_cust.c **** * Description: This file provides routines to handle the USB mass storage
   7:USBFS_msc_cust.c **** *   class requests.
   8:USBFS_msc_cust.c **** *
   9:USBFS_msc_cust.c **** * Owner:
  10:USBFS_msc_cust.c **** *	Ranjith M, Applications Engineer (rnjt@cypress.com)
  11:USBFS_msc_cust.c **** *   Ivan Grytsyk, Applications Engineer Sr (gryt@cypress.com)
  12:USBFS_msc_cust.c **** *   Vasyl Rodionov, Staff Systems Engr (rodi@cypress.com)
  13:USBFS_msc_cust.c **** *
  14:USBFS_msc_cust.c **** * Related Document:
  15:USBFS_msc_cust.c **** * 	USB Mass Storage Class Specification: 
  16:USBFS_msc_cust.c **** *   http://www.usb.org/developers/docs/devclass_docs/usbmassbulk_10.pdf
  17:USBFS_msc_cust.c **** *
  18:USBFS_msc_cust.c **** * Hardware Dependency:
  19:USBFS_msc_cust.c **** * 	CY8CKIT-042, 
  20:USBFS_msc_cust.c **** *   CY3280-MBR3, 
  21:USBFS_msc_cust.c **** *   CY8CKIT-193,
  22:USBFS_msc_cust.c **** *   CY3679 Atlas EVK,
  23:USBFS_msc_cust.c **** *   CY8CKIT-044,
  24:USBFS_msc_cust.c **** *   CY8CKIT-046,
  25:USBFS_msc_cust.c **** *   CY8CKIT-042 BLE,
  26:USBFS_msc_cust.c **** *   CY3676  Hercules EVK,
  27:USBFS_msc_cust.c **** *   CY3677  Hercules EVK
  28:USBFS_msc_cust.c **** *
  29:USBFS_msc_cust.c **** * Code Tested With:
  30:USBFS_msc_cust.c **** * 	Creator 3.3 CP3(3.3.0.9604)
  31:USBFS_msc_cust.c **** *	GCC 4.9-2015-q1-update(Cypress provided)
ARM GAS  C:\Users\linar\AppData\Local\Temp\cckt45FP.s 			page 2


  32:USBFS_msc_cust.c **** *	CY8CKIT-044, -046, -042, -042 BLE, BLE Dongle, -040, -042 BLE-A
  33:USBFS_msc_cust.c **** *
  34:USBFS_msc_cust.c **** ******************************************************************************
  35:USBFS_msc_cust.c **** * Copyright (2016), Cypress Semiconductor Corporation.
  36:USBFS_msc_cust.c **** ******************************************************************************
  37:USBFS_msc_cust.c **** * This software is owned by Cypress Semiconductor Corporation (Cypress) and is
  38:USBFS_msc_cust.c **** * protected by and subject to worldwide patent protection (United States and
  39:USBFS_msc_cust.c **** * foreign), United States copyright laws and international treaty provisions.
  40:USBFS_msc_cust.c **** * Cypress hereby grants to licensee a personal, non-exclusive, non-transferable
  41:USBFS_msc_cust.c **** * license to copy, use, modify, create derivative works of, and compile the
  42:USBFS_msc_cust.c **** * Cypress Source Code and derivative works for the sole purpose of creating
  43:USBFS_msc_cust.c **** * custom software in support of licensee product to be used only in conjunction
  44:USBFS_msc_cust.c **** * with a Cypress integrated circuit as specified in the applicable agreement.
  45:USBFS_msc_cust.c **** * Any reproduction, modification, translation, compilation, or representation of
  46:USBFS_msc_cust.c **** * this software except as specified above is prohibited without the express
  47:USBFS_msc_cust.c **** * written permission of Cypress.
  48:USBFS_msc_cust.c **** *
  49:USBFS_msc_cust.c **** * Disclaimer: CYPRESS MAKES NO WARRANTY OF ANY KIND, EXPRESS OR IMPLIED, WITH
  50:USBFS_msc_cust.c **** * REGARD TO THIS MATERIAL, INCLUDING, BUT NOT LIMITED TO, THE IMPLIED
  51:USBFS_msc_cust.c **** * WARRANTIES OF MERCHANTABILITY AND FITNESS FOR A PARTICULAR PURPOSE.
  52:USBFS_msc_cust.c **** * Cypress reserves the right to make changes without further notice to the
  53:USBFS_msc_cust.c **** * materials described herein. Cypress does not assume any liability arising out
  54:USBFS_msc_cust.c **** * of the application or use of any product or circuit described herein. Cypress
  55:USBFS_msc_cust.c **** * does not authorize its products for use as critical components in life-support
  56:USBFS_msc_cust.c **** * systems where a malfunction or failure may reasonably be expected to result in
  57:USBFS_msc_cust.c **** * significant injury to the user. The inclusion of Cypress' product in a life-
  58:USBFS_msc_cust.c **** * support systems application implies that the manufacturer assumes all risk of
  59:USBFS_msc_cust.c **** * such use and in doing so indemnifies Cypress against all charges. Use may be
  60:USBFS_msc_cust.c **** * limited by and subject to the applicable Cypress software license agreement.
  61:USBFS_msc_cust.c **** *****************************************************************************/
  62:USBFS_msc_cust.c **** #include "project.h"
  63:USBFS_msc_cust.c **** #include "diskio.h"
  64:USBFS_msc_cust.c **** #include "USBFS_msc_cust.h"
  65:USBFS_msc_cust.c **** #include "USBFS_SCSI_operations.h"
  66:USBFS_msc_cust.c **** //#include "hexParser.h"
  67:USBFS_msc_cust.c **** #include "general.h"
  68:USBFS_msc_cust.c **** 
  69:USBFS_msc_cust.c **** static CommandBlockWrapper USBFS_MSC_CBW;
  70:USBFS_msc_cust.c **** static CommandStatusWrapper USBFS_MSC_CSW;
  71:USBFS_msc_cust.c **** 
  72:USBFS_msc_cust.c **** static uint8 currState = MSC_READY_STATE;
  73:USBFS_msc_cust.c **** static uint32 USBFS_MSC_BytesToTransfer = ZERO;
  74:USBFS_msc_cust.c **** static uint32 USBFS_MSC_StartLocation = ZERO;
  75:USBFS_msc_cust.c **** 
  76:USBFS_msc_cust.c **** static uint8 resetRecovery = FALSE;
  77:USBFS_msc_cust.c **** 
  78:USBFS_msc_cust.c **** //extern uint8 beginDataParsing;
  79:USBFS_msc_cust.c **** 
  80:USBFS_msc_cust.c **** /*******************************************************************************
  81:USBFS_msc_cust.c **** * Function Name: USBFS_DispatchMSCClassRqst()
  82:USBFS_msc_cust.c **** ********************************************************************************
  83:USBFS_msc_cust.c **** * Summary:
  84:USBFS_msc_cust.c **** *  Class request handler for MSC. 
  85:USBFS_msc_cust.c **** *  Ref: Page 7, http://www.usb.org/developers/docs/devclass_docs/usbmassbulk_10.pdf
  86:USBFS_msc_cust.c **** *
  87:USBFS_msc_cust.c **** * Parameters:
  88:USBFS_msc_cust.c **** *  void
ARM GAS  C:\Users\linar\AppData\Local\Temp\cckt45FP.s 			page 3


  89:USBFS_msc_cust.c **** *
  90:USBFS_msc_cust.c **** * Return:
  91:USBFS_msc_cust.c **** *  uint8: requestHandled
  92:USBFS_msc_cust.c **** *
  93:USBFS_msc_cust.c **** *******************************************************************************/
  94:USBFS_msc_cust.c **** uint8 USBFS_DispatchMSCClassRqst(void) 
  95:USBFS_msc_cust.c **** {
  96:USBFS_msc_cust.c **** 	uint8 requestHandled = USBFS_FALSE;
  97:USBFS_msc_cust.c **** 
  98:USBFS_msc_cust.c ****     if ((CY_GET_REG8(USBFS_bmRequestType) & USBFS_RQST_DIR_MASK) == USBFS_RQST_DIR_D2H)
  99:USBFS_msc_cust.c ****     {   /* Control Read */
 100:USBFS_msc_cust.c ****         switch (CY_GET_REG8(USBFS_bRequest))
 101:USBFS_msc_cust.c ****         {
 102:USBFS_msc_cust.c ****             case USBFS_MSC_GET_MAX_LUN:
 103:USBFS_msc_cust.c **** 				USBFS_currentTD.count = 0x01;
 104:USBFS_msc_cust.c ****                 USBFS_currentTD.pData = 0x00;
 105:USBFS_msc_cust.c ****                 requestHandled  = USBFS_InitControlRead();
 106:USBFS_msc_cust.c **** //                requestHandled = USBFS_InitZeroLengthControlTransfer();
 107:USBFS_msc_cust.c ****                 break;
 108:USBFS_msc_cust.c **** 
 109:USBFS_msc_cust.c ****             /* `#START MSC_READ_REQUESTS` Place other request handler here */
 110:USBFS_msc_cust.c **** 
 111:USBFS_msc_cust.c ****             /* `#END` */
 112:USBFS_msc_cust.c **** 
 113:USBFS_msc_cust.c ****             default:    /* requestHandled is initialized as FALSE by default */
 114:USBFS_msc_cust.c ****                 break;
 115:USBFS_msc_cust.c ****         }
 116:USBFS_msc_cust.c ****     }
 117:USBFS_msc_cust.c ****     else if ((CY_GET_REG8(USBFS_bmRequestType) & USBFS_RQST_DIR_MASK) == \
 118:USBFS_msc_cust.c ****                                                                             USBFS_RQST_DIR_H2D)
 119:USBFS_msc_cust.c ****     {   /* Control Write */
 120:USBFS_msc_cust.c ****         switch (CY_GET_REG8(USBFS_bRequest))
 121:USBFS_msc_cust.c ****         {
 122:USBFS_msc_cust.c ****             case USBFS_MSC_MASS_STORAGE_RESET:
 123:USBFS_msc_cust.c **** 				resetRecovery = TRUE;
 124:USBFS_msc_cust.c ****                 requestHandled = USBFS_InitNoDataControlTransfer();
 125:USBFS_msc_cust.c ****                 break;
 126:USBFS_msc_cust.c **** 
 127:USBFS_msc_cust.c ****             /* `#START MSC_WRITE_REQUESTS` Place other request handler here */
 128:USBFS_msc_cust.c **** 
 129:USBFS_msc_cust.c ****             /* `#END` */
 130:USBFS_msc_cust.c **** 
 131:USBFS_msc_cust.c ****             default:    /* requestHandled is initialized as FALSE by default */
 132:USBFS_msc_cust.c ****                 break;
 133:USBFS_msc_cust.c ****         }
 134:USBFS_msc_cust.c ****     }
 135:USBFS_msc_cust.c ****     else
 136:USBFS_msc_cust.c ****     {   
 137:USBFS_msc_cust.c **** 		/* requestHandled is initialized as FALSE by default */
 138:USBFS_msc_cust.c ****     }
 139:USBFS_msc_cust.c **** 
 140:USBFS_msc_cust.c ****     return(requestHandled);	
 141:USBFS_msc_cust.c **** }
 142:USBFS_msc_cust.c **** 
 143:USBFS_msc_cust.c **** /*******************************************************************************
 144:USBFS_msc_cust.c **** * Function Name: USBFS_MSC_ReadOutEP
 145:USBFS_msc_cust.c **** ********************************************************************************
ARM GAS  C:\Users\linar\AppData\Local\Temp\cckt45FP.s 			page 4


 146:USBFS_msc_cust.c **** *
 147:USBFS_msc_cust.c **** * Summary:
 148:USBFS_msc_cust.c **** *  Read data from an endpoint.  This is copied from the generated files of USBFS
 149:USBFS_msc_cust.c **** *  and modified to remove the automatic re-arming of the endpoint from within 
 150:USBFS_msc_cust.c **** *  the API.
 151:USBFS_msc_cust.c **** *
 152:USBFS_msc_cust.c **** * Parameters:
 153:USBFS_msc_cust.c **** *  epNumber: Contains the data endpoint number.
 154:USBFS_msc_cust.c **** *            Valid values are between 1 and 8.
 155:USBFS_msc_cust.c **** *  pData: A pointer to a data array from which the data for the endpoint space
 156:USBFS_msc_cust.c **** *         is loaded.
 157:USBFS_msc_cust.c **** *  length: The number of bytes to transfer from the USB Out endpoint and loads
 158:USBFS_msc_cust.c **** *          it into data array. Valid values are between 0 and 1023. The function
 159:USBFS_msc_cust.c **** *          moves fewer than the requested number of bytes if the host sends
 160:USBFS_msc_cust.c **** *          fewer bytes than requested.
 161:USBFS_msc_cust.c **** *
 162:USBFS_msc_cust.c **** * Returns:
 163:USBFS_msc_cust.c **** *  None.
 164:USBFS_msc_cust.c **** *******************************************************************************/
 165:USBFS_msc_cust.c **** static void USBFS_MSC_ReadOutEP(uint8 epNumber, uint8 pData[], uint16 length)
 166:USBFS_msc_cust.c **** {
  27              		.loc 1 166 0
  28              		.cfi_startproc
  29              		@ args = 0, pretend = 0, frame = 0
  30              		@ frame_needed = 0, uses_anonymous_args = 0
  31              		@ link register save eliminated.
  32              	.LVL0:
  33 0000 10B4     		push	{r4}
  34              		.cfi_def_cfa_offset 4
  35              		.cfi_offset 4, -4
 167:USBFS_msc_cust.c ****     uint8 ri;
 168:USBFS_msc_cust.c ****     reg8 *p;
 169:USBFS_msc_cust.c ****     uint16 index;
 170:USBFS_msc_cust.c **** 
 171:USBFS_msc_cust.c ****     ri = ((epNumber - USBFS_EP1) << USBFS_EPX_CNTX_ADDR_SHIFT);
  36              		.loc 1 171 0
  37 0002 0138     		subs	r0, r0, #1
  38              	.LVL1:
  39 0004 0001     		lsls	r0, r0, #4
  40 0006 C0B2     		uxtb	r0, r0
  41              	.LVL2:
 172:USBFS_msc_cust.c ****     p = (reg8 *)(USBFS_ARB_RW1_DR_IND + ri);
  42              		.loc 1 172 0
  43 0008 054C     		ldr	r4, .L5
  44 000a 0444     		add	r4, r4, r0
  45              	.LVL3:
 173:USBFS_msc_cust.c **** 
 174:USBFS_msc_cust.c ****     /* Copy the data using the arbiter data register */
 175:USBFS_msc_cust.c ****     for (index = 0u; index < length; index++)
  46              		.loc 1 175 0
  47 000c 0023     		movs	r3, #0
  48 000e 03E0     		b	.L2
  49              	.LVL4:
  50              	.L3:
 176:USBFS_msc_cust.c ****     {
 177:USBFS_msc_cust.c ****         pData[index] = CY_GET_REG8(p);
  51              		.loc 1 177 0 discriminator 3
ARM GAS  C:\Users\linar\AppData\Local\Temp\cckt45FP.s 			page 5


  52 0010 2078     		ldrb	r0, [r4]	@ zero_extendqisi2
  53 0012 C854     		strb	r0, [r1, r3]
 175:USBFS_msc_cust.c ****     {
  54              		.loc 1 175 0 discriminator 3
  55 0014 0133     		adds	r3, r3, #1
  56              	.LVL5:
  57 0016 9BB2     		uxth	r3, r3
  58              	.LVL6:
  59              	.L2:
 175:USBFS_msc_cust.c ****     {
  60              		.loc 1 175 0 is_stmt 0 discriminator 1
  61 0018 9342     		cmp	r3, r2
  62 001a F9D3     		bcc	.L3
 178:USBFS_msc_cust.c ****     }
 179:USBFS_msc_cust.c **** }
  63              		.loc 1 179 0 is_stmt 1
  64 001c 10BC     		pop	{r4}
  65              		.cfi_restore 4
  66              		.cfi_def_cfa_offset 0
  67              	.LVL7:
  68 001e 7047     		bx	lr
  69              	.L6:
  70              		.align	2
  71              	.L5:
  72 0020 88600040 		.word	1073766536
  73              		.cfi_endproc
  74              	.LFE64:
  75              		.size	USBFS_MSC_ReadOutEP, .-USBFS_MSC_ReadOutEP
  76              		.section	.text.USBFS_DispatchMSCClassRqst,"ax",%progbits
  77              		.align	2
  78              		.global	USBFS_DispatchMSCClassRqst
  79              		.thumb
  80              		.thumb_func
  81              		.type	USBFS_DispatchMSCClassRqst, %function
  82              	USBFS_DispatchMSCClassRqst:
  83              	.LFB63:
  95:USBFS_msc_cust.c **** 	uint8 requestHandled = USBFS_FALSE;
  84              		.loc 1 95 0
  85              		.cfi_startproc
  86              		@ args = 0, pretend = 0, frame = 0
  87              		@ frame_needed = 0, uses_anonymous_args = 0
  88 0000 08B5     		push	{r3, lr}
  89              		.cfi_def_cfa_offset 8
  90              		.cfi_offset 3, -8
  91              		.cfi_offset 14, -4
  92              	.LVL8:
  98:USBFS_msc_cust.c ****     {   /* Control Read */
  93              		.loc 1 98 0
  94 0002 144B     		ldr	r3, .L18
  95 0004 1B78     		ldrb	r3, [r3]	@ zero_extendqisi2
  96 0006 13F0800F 		tst	r3, #128
  97 000a 0CD0     		beq	.L8
 100:USBFS_msc_cust.c ****         {
  98              		.loc 1 100 0
  99 000c 124B     		ldr	r3, .L18+4
 100 000e 1B78     		ldrb	r3, [r3]	@ zero_extendqisi2
 101 0010 DBB2     		uxtb	r3, r3
ARM GAS  C:\Users\linar\AppData\Local\Temp\cckt45FP.s 			page 6


 102 0012 FE2B     		cmp	r3, #254
 103 0014 17D1     		bne	.L15
 103:USBFS_msc_cust.c ****                 USBFS_currentTD.pData = 0x00;
 104              		.loc 1 103 0
 105 0016 114B     		ldr	r3, .L18+8
 106 0018 0122     		movs	r2, #1
 107 001a 1A80     		strh	r2, [r3]	@ movhi
 104:USBFS_msc_cust.c ****                 requestHandled  = USBFS_InitControlRead();
 108              		.loc 1 104 0
 109 001c 0022     		movs	r2, #0
 110 001e 5A60     		str	r2, [r3, #4]
 105:USBFS_msc_cust.c **** //                requestHandled = USBFS_InitZeroLengthControlTransfer();
 111              		.loc 1 105 0
 112 0020 FFF7FEFF 		bl	USBFS_InitControlRead
 113              	.LVL9:
 107:USBFS_msc_cust.c **** 
 114              		.loc 1 107 0
 115 0024 08BD     		pop	{r3, pc}
 116              	.LVL10:
 117              	.L8:
 117:USBFS_msc_cust.c ****                                                                             USBFS_RQST_DIR_H2D)
 118              		.loc 1 117 0
 119 0026 0B4B     		ldr	r3, .L18
 120 0028 1B78     		ldrb	r3, [r3]	@ zero_extendqisi2
 121 002a 13F0800F 		tst	r3, #128
 122 002e 0CD1     		bne	.L13
 120:USBFS_msc_cust.c ****         {
 123              		.loc 1 120 0
 124 0030 094B     		ldr	r3, .L18+4
 125 0032 1B78     		ldrb	r3, [r3]	@ zero_extendqisi2
 126 0034 DBB2     		uxtb	r3, r3
 127 0036 FF2B     		cmp	r3, #255
 128 0038 09D1     		bne	.L16
 123:USBFS_msc_cust.c ****                 requestHandled = USBFS_InitNoDataControlTransfer();
 129              		.loc 1 123 0
 130 003a 0122     		movs	r2, #1
 131 003c 084B     		ldr	r3, .L18+12
 132 003e 1A70     		strb	r2, [r3]
 124:USBFS_msc_cust.c ****                 break;
 133              		.loc 1 124 0
 134 0040 FFF7FEFF 		bl	USBFS_InitNoDataControlTransfer
 135              	.LVL11:
 125:USBFS_msc_cust.c **** 
 136              		.loc 1 125 0
 137 0044 08BD     		pop	{r3, pc}
 138              	.LVL12:
 139              	.L15:
  96:USBFS_msc_cust.c **** 
 140              		.loc 1 96 0
 141 0046 0020     		movs	r0, #0
 142 0048 08BD     		pop	{r3, pc}
 143              	.L13:
 144 004a 0020     		movs	r0, #0
 145 004c 08BD     		pop	{r3, pc}
 146              	.L16:
 147 004e 0020     		movs	r0, #0
 148              	.LVL13:
ARM GAS  C:\Users\linar\AppData\Local\Temp\cckt45FP.s 			page 7


 141:USBFS_msc_cust.c **** 
 149              		.loc 1 141 0
 150 0050 08BD     		pop	{r3, pc}
 151              	.L19:
 152 0052 00BF     		.align	2
 153              	.L18:
 154 0054 00600040 		.word	1073766400
 155 0058 01600040 		.word	1073766401
 156 005c 00000000 		.word	USBFS_currentTD
 157 0060 00000000 		.word	.LANCHOR0
 158              		.cfi_endproc
 159              	.LFE63:
 160              		.size	USBFS_DispatchMSCClassRqst, .-USBFS_DispatchMSCClassRqst
 161              		.section	.text.USBFS_InitializeMSC,"ax",%progbits
 162              		.align	2
 163              		.global	USBFS_InitializeMSC
 164              		.thumb
 165              		.thumb_func
 166              		.type	USBFS_InitializeMSC, %function
 167              	USBFS_InitializeMSC:
 168              	.LFB65:
 180:USBFS_msc_cust.c **** 
 181:USBFS_msc_cust.c **** /*******************************************************************************
 182:USBFS_msc_cust.c **** * Function Name: USBFS_InitializeMSC()
 183:USBFS_msc_cust.c **** ********************************************************************************
 184:USBFS_msc_cust.c **** * Summary:
 185:USBFS_msc_cust.c **** *  Initializes the CSW signature with the default value.
 186:USBFS_msc_cust.c **** *
 187:USBFS_msc_cust.c **** * Parameters:
 188:USBFS_msc_cust.c **** *  None.
 189:USBFS_msc_cust.c **** *
 190:USBFS_msc_cust.c **** * Return:
 191:USBFS_msc_cust.c **** *  None.
 192:USBFS_msc_cust.c **** *
 193:USBFS_msc_cust.c **** *******************************************************************************/
 194:USBFS_msc_cust.c **** void USBFS_InitializeMSC(void) 
 195:USBFS_msc_cust.c **** {
 169              		.loc 1 195 0
 170              		.cfi_startproc
 171              		@ args = 0, pretend = 0, frame = 0
 172              		@ frame_needed = 0, uses_anonymous_args = 0
 173              		@ link register save eliminated.
 196:USBFS_msc_cust.c **** 	USBFS_MSC_CSW.dCSWSignature = MSC_CSW_SIGNATURE;
 174              		.loc 1 196 0
 175 0000 014A     		ldr	r2, .L21
 176 0002 024B     		ldr	r3, .L21+4
 177 0004 5A60     		str	r2, [r3, #4]
 178 0006 7047     		bx	lr
 179              	.L22:
 180              		.align	2
 181              	.L21:
 182 0008 55534253 		.word	1396855637
 183 000c 00000000 		.word	.LANCHOR0
 184              		.cfi_endproc
 185              	.LFE65:
 186              		.size	USBFS_InitializeMSC, .-USBFS_InitializeMSC
 187              		.section	.text.USBFS_MSC_StallInEP,"ax",%progbits
ARM GAS  C:\Users\linar\AppData\Local\Temp\cckt45FP.s 			page 8


 188              		.align	2
 189              		.global	USBFS_MSC_StallInEP
 190              		.thumb
 191              		.thumb_func
 192              		.type	USBFS_MSC_StallInEP, %function
 193              	USBFS_MSC_StallInEP:
 194              	.LFB66:
 197:USBFS_msc_cust.c **** }
 198:USBFS_msc_cust.c **** 
 199:USBFS_msc_cust.c **** /*******************************************************************************
 200:USBFS_msc_cust.c **** * Function Name: USBFS_MSC_StallInEP()
 201:USBFS_msc_cust.c **** ********************************************************************************
 202:USBFS_msc_cust.c **** * Summary:
 203:USBFS_msc_cust.c **** *  Stalls the Bulk IN endpoint.
 204:USBFS_msc_cust.c **** *
 205:USBFS_msc_cust.c **** * Parameters:
 206:USBFS_msc_cust.c **** *  None.
 207:USBFS_msc_cust.c **** *
 208:USBFS_msc_cust.c **** * Return:
 209:USBFS_msc_cust.c **** *  None.
 210:USBFS_msc_cust.c **** *
 211:USBFS_msc_cust.c **** *******************************************************************************/
 212:USBFS_msc_cust.c **** void USBFS_MSC_StallInEP(void)
 213:USBFS_msc_cust.c **** {
 195              		.loc 1 213 0
 196              		.cfi_startproc
 197              		@ args = 0, pretend = 0, frame = 0
 198              		@ frame_needed = 0, uses_anonymous_args = 0
 199              		@ link register save eliminated.
 214:USBFS_msc_cust.c **** 	CY_SET_REG8(UBSFS_MSC_EP_IN_PTR, USBFS_MODE_STALL_DATA_EP);
 200              		.loc 1 214 0
 201 0000 8022     		movs	r2, #128
 202 0002 014B     		ldr	r3, .L24
 203 0004 1A70     		strb	r2, [r3]
 204 0006 7047     		bx	lr
 205              	.L25:
 206              		.align	2
 207              	.L24:
 208 0008 2E600040 		.word	1073766446
 209              		.cfi_endproc
 210              	.LFE66:
 211              		.size	USBFS_MSC_StallInEP, .-USBFS_MSC_StallInEP
 212              		.section	.text.USBFS_MSC_StallOutEP,"ax",%progbits
 213              		.align	2
 214              		.global	USBFS_MSC_StallOutEP
 215              		.thumb
 216              		.thumb_func
 217              		.type	USBFS_MSC_StallOutEP, %function
 218              	USBFS_MSC_StallOutEP:
 219              	.LFB67:
 215:USBFS_msc_cust.c **** }
 216:USBFS_msc_cust.c **** 
 217:USBFS_msc_cust.c **** /*******************************************************************************
 218:USBFS_msc_cust.c **** * Function Name: USBFS_MSC_StallOutEP()
 219:USBFS_msc_cust.c **** ********************************************************************************
 220:USBFS_msc_cust.c **** * Summary:
 221:USBFS_msc_cust.c **** *  Stalls the Bulk OUT endpoint.
ARM GAS  C:\Users\linar\AppData\Local\Temp\cckt45FP.s 			page 9


 222:USBFS_msc_cust.c **** *
 223:USBFS_msc_cust.c **** * Parameters:
 224:USBFS_msc_cust.c **** *  None.
 225:USBFS_msc_cust.c **** *
 226:USBFS_msc_cust.c **** * Return:
 227:USBFS_msc_cust.c **** *  None.
 228:USBFS_msc_cust.c **** *
 229:USBFS_msc_cust.c **** *******************************************************************************/
 230:USBFS_msc_cust.c **** void USBFS_MSC_StallOutEP(void)
 231:USBFS_msc_cust.c **** {
 220              		.loc 1 231 0
 221              		.cfi_startproc
 222              		@ args = 0, pretend = 0, frame = 0
 223              		@ frame_needed = 0, uses_anonymous_args = 0
 224              		@ link register save eliminated.
 232:USBFS_msc_cust.c **** 	CY_SET_REG8(UBSFS_MSC_EP_OUT_PTR, USBFS_MODE_STALL_DATA_EP);
 225              		.loc 1 232 0
 226 0000 8022     		movs	r2, #128
 227 0002 014B     		ldr	r3, .L27
 228 0004 1A70     		strb	r2, [r3]
 229 0006 7047     		bx	lr
 230              	.L28:
 231              		.align	2
 232              	.L27:
 233 0008 3E600040 		.word	1073766462
 234              		.cfi_endproc
 235              	.LFE67:
 236              		.size	USBFS_MSC_StallOutEP, .-USBFS_MSC_StallOutEP
 237              		.section	.text.USBFS_IsCommandBlockWrapperValid,"ax",%progbits
 238              		.align	2
 239              		.global	USBFS_IsCommandBlockWrapperValid
 240              		.thumb
 241              		.thumb_func
 242              		.type	USBFS_IsCommandBlockWrapperValid, %function
 243              	USBFS_IsCommandBlockWrapperValid:
 244              	.LFB68:
 233:USBFS_msc_cust.c **** }
 234:USBFS_msc_cust.c **** 
 235:USBFS_msc_cust.c **** /*******************************************************************************
 236:USBFS_msc_cust.c **** * Function Name: USBFS_IsCommandBlockWrapperValid()
 237:USBFS_msc_cust.c **** ********************************************************************************
 238:USBFS_msc_cust.c **** * Summary:
 239:USBFS_msc_cust.c **** *  Check for validity of CBW.
 240:USBFS_msc_cust.c **** *
 241:USBFS_msc_cust.c **** * Parameters:
 242:USBFS_msc_cust.c **** *  None.
 243:USBFS_msc_cust.c **** *
 244:USBFS_msc_cust.c **** * Return:
 245:USBFS_msc_cust.c **** *  uint8: If the CBW is valid or not.
 246:USBFS_msc_cust.c **** *
 247:USBFS_msc_cust.c **** *******************************************************************************/
 248:USBFS_msc_cust.c **** uint8 USBFS_IsCommandBlockWrapperValid(void)
 249:USBFS_msc_cust.c **** {
 245              		.loc 1 249 0
 246              		.cfi_startproc
 247              		@ args = 0, pretend = 0, frame = 0
 248              		@ frame_needed = 0, uses_anonymous_args = 0
ARM GAS  C:\Users\linar\AppData\Local\Temp\cckt45FP.s 			page 10


 249              		@ link register save eliminated.
 250              	.LVL14:
 250:USBFS_msc_cust.c **** 	uint8 validStatus = CYRET_BAD_DATA;	
 251:USBFS_msc_cust.c **** 	uint8 index = ZERO;
 252:USBFS_msc_cust.c **** 	
 253:USBFS_msc_cust.c **** 	for(index = ZERO; index < MSC_CBW_SIZE; index++)
 251              		.loc 1 253 0
 252 0000 0023     		movs	r3, #0
 253 0002 05E0     		b	.L30
 254              	.LVL15:
 255              	.L31:
 254:USBFS_msc_cust.c **** 	{
 255:USBFS_msc_cust.c **** 		/* Copy all contents from EP buffer to structure. May replace with DMA, 
 256:USBFS_msc_cust.c **** 		 * need to validate if efficiency can be increased in that way. */
 257:USBFS_msc_cust.c **** 		*((uint8 *)&USBFS_MSC_CBW + index) = USBFS_MSC_OutEPBuffer[index]; 
 256              		.loc 1 257 0 discriminator 3
 257 0004 0F4A     		ldr	r2, .L36
 258 0006 D15C     		ldrb	r1, [r2, r3]	@ zero_extendqisi2
 259 0008 0F4A     		ldr	r2, .L36+4
 260 000a D154     		strb	r1, [r2, r3]
 253:USBFS_msc_cust.c **** 	{
 261              		.loc 1 253 0 discriminator 3
 262 000c 0133     		adds	r3, r3, #1
 263              	.LVL16:
 264 000e DBB2     		uxtb	r3, r3
 265              	.LVL17:
 266              	.L30:
 253:USBFS_msc_cust.c **** 	{
 267              		.loc 1 253 0 is_stmt 0 discriminator 1
 268 0010 1E2B     		cmp	r3, #30
 269 0012 F7D9     		bls	.L31
 258:USBFS_msc_cust.c **** 	}
 259:USBFS_msc_cust.c **** 	
 260:USBFS_msc_cust.c **** 	if(USBFS_MSC_CBW.dCBWSignature == MSC_CBW_SIGNATURE)
 270              		.loc 1 260 0 is_stmt 1
 271 0014 0D4B     		ldr	r3, .L36+8
 272              	.LVL18:
 273 0016 5A69     		ldr	r2, [r3, #20]
 274 0018 0D4B     		ldr	r3, .L36+12
 275 001a 9A42     		cmp	r2, r3
 276 001c 0CD1     		bne	.L33
 261:USBFS_msc_cust.c **** 	{
 262:USBFS_msc_cust.c **** 		if(USBFS_MSC_CBW.bCBWLUN <= USBFS_MSC_MAX_LUN_NUMBER)
 277              		.loc 1 262 0
 278 001e 0B4B     		ldr	r3, .L36+8
 279 0020 93F82130 		ldrb	r3, [r3, #33]	@ zero_extendqisi2
 280 0024 53B9     		cbnz	r3, .L34
 263:USBFS_msc_cust.c **** 		{
 264:USBFS_msc_cust.c **** 			if((USBFS_MSC_CBW.bCBWCBLength > ZERO) && (USBFS_MSC_CBW.bCBWCBLength <= MSC_MAX_CBWCB_LEN)) 
 281              		.loc 1 264 0
 282 0026 094B     		ldr	r3, .L36+8
 283 0028 93F82230 		ldrb	r3, [r3, #34]	@ zero_extendqisi2
 284 002c 013B     		subs	r3, r3, #1
 285 002e DBB2     		uxtb	r3, r3
 286 0030 0F2B     		cmp	r3, #15
 287 0032 05D9     		bls	.L35
 250:USBFS_msc_cust.c **** 	uint8 index = ZERO;
ARM GAS  C:\Users\linar\AppData\Local\Temp\cckt45FP.s 			page 11


 288              		.loc 1 250 0
 289 0034 0620     		movs	r0, #6
 290 0036 7047     		bx	lr
 291              	.L33:
 292 0038 0620     		movs	r0, #6
 293 003a 7047     		bx	lr
 294              	.L34:
 295 003c 0620     		movs	r0, #6
 296 003e 7047     		bx	lr
 297              	.L35:
 265:USBFS_msc_cust.c **** 			{
 266:USBFS_msc_cust.c **** 				/* Validate all conditons of section 6.6.1 of MSC spec. */
 267:USBFS_msc_cust.c **** 				validStatus = CYRET_SUCCESS; 
 298              		.loc 1 267 0
 299 0040 0020     		movs	r0, #0
 300              	.LVL19:
 268:USBFS_msc_cust.c **** 			}
 269:USBFS_msc_cust.c **** 		}
 270:USBFS_msc_cust.c **** 	}
 271:USBFS_msc_cust.c **** 	return(validStatus);
 272:USBFS_msc_cust.c **** }
 301              		.loc 1 272 0
 302 0042 7047     		bx	lr
 303              	.L37:
 304              		.align	2
 305              	.L36:
 306 0044 00000000 		.word	USBFS_MSC_OutEPBuffer
 307 0048 14000000 		.word	.LANCHOR0+20
 308 004c 00000000 		.word	.LANCHOR0
 309 0050 55534243 		.word	1128420181
 310              		.cfi_endproc
 311              	.LFE68:
 312              		.size	USBFS_IsCommandBlockWrapperValid, .-USBFS_IsCommandBlockWrapperValid
 313              		.section	.text.HandleSCSIInRequests,"ax",%progbits
 314              		.align	2
 315              		.global	HandleSCSIInRequests
 316              		.thumb
 317              		.thumb_func
 318              		.type	HandleSCSIInRequests, %function
 319              	HandleSCSIInRequests:
 320              	.LFB69:
 273:USBFS_msc_cust.c **** 
 274:USBFS_msc_cust.c **** /*******************************************************************************
 275:USBFS_msc_cust.c **** * Function Name: HandleSCSIInRequests()
 276:USBFS_msc_cust.c **** ********************************************************************************
 277:USBFS_msc_cust.c **** * Summary:
 278:USBFS_msc_cust.c **** *  Interprets the SCSI IN commands and implements a non-blocking statemachine 
 279:USBFS_msc_cust.c **** *  to service the requests. 
 280:USBFS_msc_cust.c **** *
 281:USBFS_msc_cust.c **** * Parameters:
 282:USBFS_msc_cust.c **** *  None.
 283:USBFS_msc_cust.c **** *
 284:USBFS_msc_cust.c **** * Return:
 285:USBFS_msc_cust.c **** *  cystatus: PASS: If the routines handling SCSI is successful.
 286:USBFS_msc_cust.c **** *
 287:USBFS_msc_cust.c **** *******************************************************************************/
 288:USBFS_msc_cust.c **** cystatus HandleSCSIInRequests(void)
ARM GAS  C:\Users\linar\AppData\Local\Temp\cckt45FP.s 			page 12


 289:USBFS_msc_cust.c **** {
 321              		.loc 1 289 0
 322              		.cfi_startproc
 323              		@ args = 0, pretend = 0, frame = 512
 324              		@ frame_needed = 0, uses_anonymous_args = 0
 325 0000 30B5     		push	{r4, r5, lr}
 326              		.cfi_def_cfa_offset 12
 327              		.cfi_offset 4, -12
 328              		.cfi_offset 5, -8
 329              		.cfi_offset 14, -4
 330 0002 ADF5017D 		sub	sp, sp, #516
 331              		.cfi_def_cfa_offset 528
 332              	.LVL20:
 290:USBFS_msc_cust.c **** 	cystatus commandStatus = CYRET_INVALID_STATE;
 291:USBFS_msc_cust.c **** 	static uint8 currPacketSize = ZERO;
 292:USBFS_msc_cust.c **** 	static uint8 toggle = ZERO;
 293:USBFS_msc_cust.c **** 	uint32 index = ZERO;
 294:USBFS_msc_cust.c **** 	uint8 epIndex = ZERO;
 295:USBFS_msc_cust.c ****     uint8 recvBuff[512];
 296:USBFS_msc_cust.c **** 	
 297:USBFS_msc_cust.c **** 	switch(USBFS_MSC_CBW.CBWCB[0])
 333              		.loc 1 297 0
 334 0006 874B     		ldr	r3, .L66
 335 0008 93F82330 		ldrb	r3, [r3, #35]	@ zero_extendqisi2
 336 000c 033B     		subs	r3, r3, #3
 337 000e 572B     		cmp	r3, #87
 338 0010 00F2E080 		bhi	.L63
 339 0014 DFE803F0 		tbb	[pc, r3]
 340              	.L41:
 341 0018 84       		.byte	(.L40-.L41)/2
 342 0019 C0       		.byte	(.L42-.L41)/2
 343 001a DE       		.byte	(.L63-.L41)/2
 344 001b DE       		.byte	(.L63-.L41)/2
 345 001c DE       		.byte	(.L63-.L41)/2
 346 001d DE       		.byte	(.L63-.L41)/2
 347 001e DE       		.byte	(.L63-.L41)/2
 348 001f DE       		.byte	(.L63-.L41)/2
 349 0020 DE       		.byte	(.L63-.L41)/2
 350 0021 DE       		.byte	(.L63-.L41)/2
 351 0022 DE       		.byte	(.L63-.L41)/2
 352 0023 DE       		.byte	(.L63-.L41)/2
 353 0024 DE       		.byte	(.L63-.L41)/2
 354 0025 DE       		.byte	(.L63-.L41)/2
 355 0026 DE       		.byte	(.L63-.L41)/2
 356 0027 8E       		.byte	(.L43-.L41)/2
 357 0028 DE       		.byte	(.L63-.L41)/2
 358 0029 DE       		.byte	(.L63-.L41)/2
 359 002a CA       		.byte	(.L44-.L41)/2
 360 002b DE       		.byte	(.L63-.L41)/2
 361 002c DE       		.byte	(.L63-.L41)/2
 362 002d DE       		.byte	(.L63-.L41)/2
 363 002e DE       		.byte	(.L63-.L41)/2
 364 002f 98       		.byte	(.L45-.L41)/2
 365 0030 DE       		.byte	(.L63-.L41)/2
 366 0031 DE       		.byte	(.L63-.L41)/2
 367 0032 DE       		.byte	(.L63-.L41)/2
 368 0033 DE       		.byte	(.L63-.L41)/2
ARM GAS  C:\Users\linar\AppData\Local\Temp\cckt45FP.s 			page 13


 369 0034 DE       		.byte	(.L63-.L41)/2
 370 0035 DE       		.byte	(.L63-.L41)/2
 371 0036 DE       		.byte	(.L63-.L41)/2
 372 0037 DE       		.byte	(.L63-.L41)/2
 373 0038 B6       		.byte	(.L46-.L41)/2
 374 0039 DE       		.byte	(.L63-.L41)/2
 375 003a AC       		.byte	(.L47-.L41)/2
 376 003b DE       		.byte	(.L63-.L41)/2
 377 003c DE       		.byte	(.L63-.L41)/2
 378 003d 2C       		.byte	(.L48-.L41)/2
 379 003e DE       		.byte	(.L63-.L41)/2
 380 003f DE       		.byte	(.L63-.L41)/2
 381 0040 DE       		.byte	(.L63-.L41)/2
 382 0041 DE       		.byte	(.L63-.L41)/2
 383 0042 DE       		.byte	(.L63-.L41)/2
 384 0043 DE       		.byte	(.L63-.L41)/2
 385 0044 DE       		.byte	(.L63-.L41)/2
 386 0045 DE       		.byte	(.L63-.L41)/2
 387 0046 DE       		.byte	(.L63-.L41)/2
 388 0047 DE       		.byte	(.L63-.L41)/2
 389 0048 DE       		.byte	(.L63-.L41)/2
 390 0049 DE       		.byte	(.L63-.L41)/2
 391 004a DE       		.byte	(.L63-.L41)/2
 392 004b DE       		.byte	(.L63-.L41)/2
 393 004c DE       		.byte	(.L63-.L41)/2
 394 004d DE       		.byte	(.L63-.L41)/2
 395 004e DE       		.byte	(.L63-.L41)/2
 396 004f DE       		.byte	(.L63-.L41)/2
 397 0050 DE       		.byte	(.L63-.L41)/2
 398 0051 DE       		.byte	(.L63-.L41)/2
 399 0052 DE       		.byte	(.L63-.L41)/2
 400 0053 DE       		.byte	(.L63-.L41)/2
 401 0054 DE       		.byte	(.L63-.L41)/2
 402 0055 DE       		.byte	(.L63-.L41)/2
 403 0056 DE       		.byte	(.L63-.L41)/2
 404 0057 DE       		.byte	(.L63-.L41)/2
 405 0058 DE       		.byte	(.L63-.L41)/2
 406 0059 DE       		.byte	(.L63-.L41)/2
 407 005a DE       		.byte	(.L63-.L41)/2
 408 005b DE       		.byte	(.L63-.L41)/2
 409 005c DE       		.byte	(.L63-.L41)/2
 410 005d DE       		.byte	(.L63-.L41)/2
 411 005e DE       		.byte	(.L63-.L41)/2
 412 005f DE       		.byte	(.L63-.L41)/2
 413 0060 DE       		.byte	(.L63-.L41)/2
 414 0061 DE       		.byte	(.L63-.L41)/2
 415 0062 DE       		.byte	(.L63-.L41)/2
 416 0063 DE       		.byte	(.L63-.L41)/2
 417 0064 DE       		.byte	(.L63-.L41)/2
 418 0065 DE       		.byte	(.L63-.L41)/2
 419 0066 DE       		.byte	(.L63-.L41)/2
 420 0067 DE       		.byte	(.L63-.L41)/2
 421 0068 DE       		.byte	(.L63-.L41)/2
 422 0069 DE       		.byte	(.L63-.L41)/2
 423 006a D4       		.byte	(.L49-.L41)/2
 424 006b DE       		.byte	(.L63-.L41)/2
 425 006c DE       		.byte	(.L63-.L41)/2
ARM GAS  C:\Users\linar\AppData\Local\Temp\cckt45FP.s 			page 14


 426 006d DE       		.byte	(.L63-.L41)/2
 427 006e DE       		.byte	(.L63-.L41)/2
 428 006f A2       		.byte	(.L50-.L41)/2
 429              		.p2align 1
 430              	.L48:
 298:USBFS_msc_cust.c **** 	{
 299:USBFS_msc_cust.c **** 		case USBFS_MSC_SCSI_READ10:
 300:USBFS_msc_cust.c **** 			if(toggle == ZERO)
 431              		.loc 1 300 0
 432 0070 6C4B     		ldr	r3, .L66
 433 0072 93F83430 		ldrb	r3, [r3, #52]	@ zero_extendqisi2
 434 0076 002B     		cmp	r3, #0
 435 0078 41D1     		bne	.L51
 301:USBFS_msc_cust.c **** 			{
 302:USBFS_msc_cust.c **** 				if(USBFS_MSC_BytesToTransfer > IN_EP_BUF_SIZE)
 436              		.loc 1 302 0
 437 007a 6A4B     		ldr	r3, .L66
 438 007c 9B6B     		ldr	r3, [r3, #56]
 439 007e 402B     		cmp	r3, #64
 440 0080 04D9     		bls	.L52
 303:USBFS_msc_cust.c **** 				{
 304:USBFS_msc_cust.c **** 					currPacketSize = IN_EP_BUF_SIZE;
 441              		.loc 1 304 0
 442 0082 4022     		movs	r2, #64
 443 0084 674B     		ldr	r3, .L66
 444 0086 83F83C20 		strb	r2, [r3, #60]
 445 008a 02E0     		b	.L53
 446              	.L52:
 305:USBFS_msc_cust.c **** 				}
 306:USBFS_msc_cust.c **** 				else
 307:USBFS_msc_cust.c **** 				{
 308:USBFS_msc_cust.c **** 					currPacketSize = USBFS_MSC_BytesToTransfer;
 447              		.loc 1 308 0
 448 008c 654A     		ldr	r2, .L66
 449 008e 82F83C30 		strb	r3, [r2, #60]
 450              	.L53:
 309:USBFS_msc_cust.c **** 				}
 310:USBFS_msc_cust.c **** 				
 311:USBFS_msc_cust.c **** 				if((USBFS_MSC_StartLocation + currPacketSize) > USBFS_MSC_TOTAL_MEM_SIZE)
 451              		.loc 1 311 0
 452 0092 644B     		ldr	r3, .L66
 453 0094 1A6C     		ldr	r2, [r3, #64]
 454 0096 93F83C30 		ldrb	r3, [r3, #60]	@ zero_extendqisi2
 455 009a 1344     		add	r3, r3, r2
 456 009c 6249     		ldr	r1, .L66+4
 457 009e 8B42     		cmp	r3, r1
 458 00a0 04D9     		bls	.L54
 312:USBFS_msc_cust.c **** 				{
 313:USBFS_msc_cust.c **** 					currPacketSize = USBFS_MSC_TOTAL_MEM_SIZE - USBFS_MSC_StartLocation;
 459              		.loc 1 313 0
 460 00a2 C2F1C003 		rsb	r3, r2, #192
 461 00a6 5F49     		ldr	r1, .L66
 462 00a8 81F83C30 		strb	r3, [r1, #60]
 463              	.L54:
 314:USBFS_msc_cust.c **** 				}
 315:USBFS_msc_cust.c ****                 
 316:USBFS_msc_cust.c **** 				if(USBFS_MSC_StartLocation > USBFS_MSC_SRAM_END_LOC)
ARM GAS  C:\Users\linar\AppData\Local\Temp\cckt45FP.s 			page 15


 464              		.loc 1 316 0
 465 00ac 47F23053 		movw	r3, #30000
 466 00b0 9A42     		cmp	r2, r3
 467 00b2 06D8     		bhi	.L64
 468 00b4 0CE0     		b	.L56
 469              	.LVL21:
 470              	.L57:
 317:USBFS_msc_cust.c **** 				{
 318:USBFS_msc_cust.c **** 					/* Return spaces if host tries to read memory locations outside emulated memory in SRAM. */
 319:USBFS_msc_cust.c **** 					for(epIndex = ZERO, index = USBFS_MSC_StartLocation; epIndex < currPacketSize; epIndex++, inde
 320:USBFS_msc_cust.c **** 					{
 321:USBFS_msc_cust.c **** 						USBFS_MSC_InEPBuffer[epIndex] = 0x20;
 471              		.loc 1 321 0 discriminator 3
 472 00b6 2021     		movs	r1, #32
 473 00b8 5C4A     		ldr	r2, .L66+8
 474 00ba D154     		strb	r1, [r2, r3]
 319:USBFS_msc_cust.c **** 					{
 475              		.loc 1 319 0 discriminator 3
 476 00bc 0133     		adds	r3, r3, #1
 477              	.LVL22:
 478 00be DBB2     		uxtb	r3, r3
 479              	.LVL23:
 480 00c0 00E0     		b	.L55
 481              	.LVL24:
 482              	.L64:
 483 00c2 0023     		movs	r3, #0
 484              	.LVL25:
 485              	.L55:
 319:USBFS_msc_cust.c **** 					{
 486              		.loc 1 319 0 is_stmt 0 discriminator 1
 487 00c4 574A     		ldr	r2, .L66
 488 00c6 92F83C20 		ldrb	r2, [r2, #60]	@ zero_extendqisi2
 489 00ca 9342     		cmp	r3, r2
 490 00cc F3D3     		bcc	.L57
 491 00ce 16E0     		b	.L51
 492              	.LVL26:
 493              	.L56:
 322:USBFS_msc_cust.c **** 					}
 323:USBFS_msc_cust.c **** 					toggle = ~ZERO;
 324:USBFS_msc_cust.c **** 				}
 325:USBFS_msc_cust.c **** 				else
 326:USBFS_msc_cust.c **** 				{
 327:USBFS_msc_cust.c **** 					/* Allow reads from emulated memory if the requested location is within the SRAM. */
 328:USBFS_msc_cust.c **** 					while(disk_read(0, recvBuff, USBFS_MSC_StartLocation/512, 1) == BUSY){}
 494              		.loc 1 328 0 is_stmt 1 discriminator 1
 495 00d0 544B     		ldr	r3, .L66
 496 00d2 1A6C     		ldr	r2, [r3, #64]
 497 00d4 0123     		movs	r3, #1
 498 00d6 520A     		lsrs	r2, r2, #9
 499 00d8 6946     		mov	r1, sp
 500 00da 0020     		movs	r0, #0
 501 00dc FFF7FEFF 		bl	disk_read
 502              	.LVL27:
 503 00e0 0228     		cmp	r0, #2
 504 00e2 F5D0     		beq	.L56
 505 00e4 0023     		movs	r3, #0
 506 00e6 05E0     		b	.L58
ARM GAS  C:\Users\linar\AppData\Local\Temp\cckt45FP.s 			page 16


 507              	.LVL28:
 508              	.L59:
 329:USBFS_msc_cust.c ****                     for(epIndex = ZERO, index = USBFS_MSC_StartLocation; epIndex < currPacketSize; 
 330:USBFS_msc_cust.c **** 					{
 331:USBFS_msc_cust.c **** 						USBFS_MSC_InEPBuffer[epIndex] = recvBuff[epIndex];
 509              		.loc 1 331 0 discriminator 3
 510 00e8 1DF80310 		ldrb	r1, [sp, r3]	@ zero_extendqisi2
 511 00ec 4F4A     		ldr	r2, .L66+8
 512 00ee D154     		strb	r1, [r2, r3]
 329:USBFS_msc_cust.c ****                     for(epIndex = ZERO, index = USBFS_MSC_StartLocation; epIndex < currPacketSize; 
 513              		.loc 1 329 0 discriminator 3
 514 00f0 0133     		adds	r3, r3, #1
 515              	.LVL29:
 516 00f2 DBB2     		uxtb	r3, r3
 517              	.LVL30:
 518              	.L58:
 329:USBFS_msc_cust.c ****                     for(epIndex = ZERO, index = USBFS_MSC_StartLocation; epIndex < currPacketSize; 
 519              		.loc 1 329 0 is_stmt 0 discriminator 1
 520 00f4 4B4A     		ldr	r2, .L66
 521 00f6 92F83C20 		ldrb	r2, [r2, #60]	@ zero_extendqisi2
 522 00fa 9342     		cmp	r3, r2
 523 00fc F4D3     		bcc	.L59
 524              	.LVL31:
 525              	.L51:
 332:USBFS_msc_cust.c **** 					}
 333:USBFS_msc_cust.c **** 				}
 334:USBFS_msc_cust.c **** 			}
 335:USBFS_msc_cust.c ****             
 336:USBFS_msc_cust.c **** 			if((USBFS_MSC_StartLocation + currPacketSize) > USBFS_MSC_TOTAL_MEM_SIZE)
 526              		.loc 1 336 0 is_stmt 1
 527 00fe 494A     		ldr	r2, .L66
 528 0100 92F83C10 		ldrb	r1, [r2, #60]	@ zero_extendqisi2
 529 0104 136C     		ldr	r3, [r2, #64]
 530 0106 0B44     		add	r3, r3, r1
 531 0108 474A     		ldr	r2, .L66+4
 532 010a 9342     		cmp	r3, r2
 533 010c 03D9     		bls	.L60
 337:USBFS_msc_cust.c **** 			{
 338:USBFS_msc_cust.c **** 				currState = MSC_STATUS_TRANSPORT;
 534              		.loc 1 338 0
 535 010e 0522     		movs	r2, #5
 536 0110 444B     		ldr	r3, .L66
 537 0112 83F84420 		strb	r2, [r3, #68]
 538              	.L60:
 539              	.LVL32:
 339:USBFS_msc_cust.c **** 			}
 340:USBFS_msc_cust.c **** 			commandStatus = USBFS_MSC_CSW_PASS;
 341:USBFS_msc_cust.c **** 			toggle = ZERO;
 540              		.loc 1 341 0
 541 0116 0024     		movs	r4, #0
 542 0118 424B     		ldr	r3, .L66
 543 011a 83F83440 		strb	r4, [r3, #52]
 342:USBFS_msc_cust.c ****             
 343:USBFS_msc_cust.c **** 			break;
 544              		.loc 1 343 0
 545 011e 5AE0     		b	.L39
 546              	.LVL33:
ARM GAS  C:\Users\linar\AppData\Local\Temp\cckt45FP.s 			page 17


 547              	.L40:
 344:USBFS_msc_cust.c **** 			
 345:USBFS_msc_cust.c **** 		case USBFS_MSC_SCSI_REQUEST_SENSE:
 346:USBFS_msc_cust.c **** 			commandStatus = USBFS_MSC_SCSI_RequestSense(&currPacketSize);
 548              		.loc 1 346 0
 549 0120 404D     		ldr	r5, .L66
 550 0122 05F13C00 		add	r0, r5, #60
 551 0126 FFF7FEFF 		bl	USBFS_MSC_SCSI_RequestSense
 552              	.LVL34:
 553 012a 0446     		mov	r4, r0
 554              	.LVL35:
 347:USBFS_msc_cust.c **** 			currState = MSC_STATUS_TRANSPORT;
 555              		.loc 1 347 0
 556 012c 0523     		movs	r3, #5
 557 012e 85F84430 		strb	r3, [r5, #68]
 348:USBFS_msc_cust.c **** 			break;
 558              		.loc 1 348 0
 559 0132 50E0     		b	.L39
 560              	.LVL36:
 561              	.L43:
 349:USBFS_msc_cust.c **** 			
 350:USBFS_msc_cust.c **** 		case USBFS_MSC_SCSI_INQUIRY:
 351:USBFS_msc_cust.c **** 			commandStatus = USBFS_MSC_SCSI_Inquiry(&currPacketSize);
 562              		.loc 1 351 0
 563 0134 3B4D     		ldr	r5, .L66
 564 0136 05F13C00 		add	r0, r5, #60
 565 013a FFF7FEFF 		bl	USBFS_MSC_SCSI_Inquiry
 566              	.LVL37:
 567 013e 0446     		mov	r4, r0
 568              	.LVL38:
 352:USBFS_msc_cust.c **** 			currState = MSC_STATUS_TRANSPORT;
 569              		.loc 1 352 0
 570 0140 0523     		movs	r3, #5
 571 0142 85F84430 		strb	r3, [r5, #68]
 353:USBFS_msc_cust.c **** 			break;
 572              		.loc 1 353 0
 573 0146 46E0     		b	.L39
 574              	.LVL39:
 575              	.L45:
 354:USBFS_msc_cust.c **** 			
 355:USBFS_msc_cust.c **** 		case USBFS_MSC_SCSI_MODE_SENSE6:
 356:USBFS_msc_cust.c **** 			commandStatus = USBFS_MSC_SCSI_ModeSense6(&currPacketSize);
 576              		.loc 1 356 0
 577 0148 364D     		ldr	r5, .L66
 578 014a 05F13C00 		add	r0, r5, #60
 579 014e FFF7FEFF 		bl	USBFS_MSC_SCSI_ModeSense6
 580              	.LVL40:
 581 0152 0446     		mov	r4, r0
 582              	.LVL41:
 357:USBFS_msc_cust.c **** 			currState = MSC_STATUS_TRANSPORT;
 583              		.loc 1 357 0
 584 0154 0523     		movs	r3, #5
 585 0156 85F84430 		strb	r3, [r5, #68]
 358:USBFS_msc_cust.c **** 			break;
 586              		.loc 1 358 0
 587 015a 3CE0     		b	.L39
 588              	.LVL42:
ARM GAS  C:\Users\linar\AppData\Local\Temp\cckt45FP.s 			page 18


 589              	.L50:
 359:USBFS_msc_cust.c **** 			
 360:USBFS_msc_cust.c **** 		case USBFS_MSC_SCSI_MODE_SENSE10:
 361:USBFS_msc_cust.c **** 			commandStatus = USBFS_MSC_SCSI_ModeSense10(&currPacketSize);
 590              		.loc 1 361 0
 591 015c 314D     		ldr	r5, .L66
 592 015e 05F13C00 		add	r0, r5, #60
 593 0162 FFF7FEFF 		bl	USBFS_MSC_SCSI_ModeSense10
 594              	.LVL43:
 595 0166 0446     		mov	r4, r0
 596              	.LVL44:
 362:USBFS_msc_cust.c **** 			currState = MSC_STATUS_TRANSPORT;
 597              		.loc 1 362 0
 598 0168 0523     		movs	r3, #5
 599 016a 85F84430 		strb	r3, [r5, #68]
 363:USBFS_msc_cust.c **** 			break;
 600              		.loc 1 363 0
 601 016e 32E0     		b	.L39
 602              	.LVL45:
 603              	.L47:
 364:USBFS_msc_cust.c **** 			
 365:USBFS_msc_cust.c **** 		case USBFS_MSC_SCSI_READ_CAPACITY:
 366:USBFS_msc_cust.c **** 			commandStatus = USBFS_MSC_SCSI_ReadCapacity(&currPacketSize);
 604              		.loc 1 366 0
 605 0170 2C4D     		ldr	r5, .L66
 606 0172 05F13C00 		add	r0, r5, #60
 607 0176 FFF7FEFF 		bl	USBFS_MSC_SCSI_ReadCapacity
 608              	.LVL46:
 609 017a 0446     		mov	r4, r0
 610              	.LVL47:
 367:USBFS_msc_cust.c **** 			currState = MSC_STATUS_TRANSPORT;
 611              		.loc 1 367 0
 612 017c 0523     		movs	r3, #5
 613 017e 85F84430 		strb	r3, [r5, #68]
 368:USBFS_msc_cust.c **** 			break;
 614              		.loc 1 368 0
 615 0182 28E0     		b	.L39
 616              	.LVL48:
 617              	.L46:
 369:USBFS_msc_cust.c **** 			
 370:USBFS_msc_cust.c **** 		case USBFS_MSC_SCSI_READ_FORMAT_CAPACITIES:
 371:USBFS_msc_cust.c **** 			commandStatus = USBFS_MSC_SCSI_ReadFormatCapacities(&currPacketSize);
 618              		.loc 1 371 0
 619 0184 274D     		ldr	r5, .L66
 620 0186 05F13C00 		add	r0, r5, #60
 621 018a FFF7FEFF 		bl	USBFS_MSC_SCSI_ReadFormatCapacities
 622              	.LVL49:
 623 018e 0446     		mov	r4, r0
 624              	.LVL50:
 372:USBFS_msc_cust.c **** 			currState = MSC_STATUS_TRANSPORT;
 625              		.loc 1 372 0
 626 0190 0523     		movs	r3, #5
 627 0192 85F84430 		strb	r3, [r5, #68]
 373:USBFS_msc_cust.c **** 			break;
 628              		.loc 1 373 0
 629 0196 1EE0     		b	.L39
 630              	.LVL51:
ARM GAS  C:\Users\linar\AppData\Local\Temp\cckt45FP.s 			page 19


 631              	.L42:
 374:USBFS_msc_cust.c **** 			
 375:USBFS_msc_cust.c **** 		case USBFS_MSC_SCSI_FORMAT_UNIT:
 376:USBFS_msc_cust.c **** 			commandStatus = USBFS_MSC_SCSI_FormatUnit(&currPacketSize);
 632              		.loc 1 376 0
 633 0198 224D     		ldr	r5, .L66
 634 019a 05F13C00 		add	r0, r5, #60
 635 019e FFF7FEFF 		bl	USBFS_MSC_SCSI_FormatUnit
 636              	.LVL52:
 637 01a2 0446     		mov	r4, r0
 638              	.LVL53:
 377:USBFS_msc_cust.c **** 			currState = MSC_STATUS_TRANSPORT;
 639              		.loc 1 377 0
 640 01a4 0523     		movs	r3, #5
 641 01a6 85F84430 		strb	r3, [r5, #68]
 378:USBFS_msc_cust.c **** 			break;
 642              		.loc 1 378 0
 643 01aa 14E0     		b	.L39
 644              	.LVL54:
 645              	.L44:
 379:USBFS_msc_cust.c **** 			
 380:USBFS_msc_cust.c **** 		case USBFS_MSC_SCSI_MODE_SELECT6:
 381:USBFS_msc_cust.c **** 			commandStatus = USBFS_MSC_SCSI_ModeSelect6(&currPacketSize);
 646              		.loc 1 381 0
 647 01ac 1D4D     		ldr	r5, .L66
 648 01ae 05F13C00 		add	r0, r5, #60
 649 01b2 FFF7FEFF 		bl	USBFS_MSC_SCSI_ModeSelect6
 650              	.LVL55:
 651 01b6 0446     		mov	r4, r0
 652              	.LVL56:
 382:USBFS_msc_cust.c **** 			currState = MSC_STATUS_TRANSPORT;
 653              		.loc 1 382 0
 654 01b8 0523     		movs	r3, #5
 655 01ba 85F84430 		strb	r3, [r5, #68]
 383:USBFS_msc_cust.c **** 			break;
 656              		.loc 1 383 0
 657 01be 0AE0     		b	.L39
 658              	.LVL57:
 659              	.L49:
 384:USBFS_msc_cust.c **** 			
 385:USBFS_msc_cust.c **** 		case USBFS_MSC_SCSI_MODE_SELECT10:
 386:USBFS_msc_cust.c **** 			commandStatus = USBFS_MSC_SCSI_ModeSelect10(&currPacketSize);
 660              		.loc 1 386 0
 661 01c0 184D     		ldr	r5, .L66
 662 01c2 05F13C00 		add	r0, r5, #60
 663 01c6 FFF7FEFF 		bl	USBFS_MSC_SCSI_ModeSelect10
 664              	.LVL58:
 665 01ca 0446     		mov	r4, r0
 666              	.LVL59:
 387:USBFS_msc_cust.c **** 			currState = MSC_STATUS_TRANSPORT;
 667              		.loc 1 387 0
 668 01cc 0523     		movs	r3, #5
 669 01ce 85F84430 		strb	r3, [r5, #68]
 388:USBFS_msc_cust.c **** 			break;
 670              		.loc 1 388 0
 671 01d2 00E0     		b	.L39
 672              	.LVL60:
ARM GAS  C:\Users\linar\AppData\Local\Temp\cckt45FP.s 			page 20


 673              	.L63:
 290:USBFS_msc_cust.c **** 	static uint8 currPacketSize = ZERO;
 674              		.loc 1 290 0
 675 01d4 1124     		movs	r4, #17
 676              	.LVL61:
 677              	.L39:
 389:USBFS_msc_cust.c **** 			
 390:USBFS_msc_cust.c **** 		default:
 391:USBFS_msc_cust.c **** 			break;
 392:USBFS_msc_cust.c **** 	}
 393:USBFS_msc_cust.c **** 	
 394:USBFS_msc_cust.c **** 	if(commandStatus == USBFS_MSC_CSW_PASS)
 678              		.loc 1 394 0
 679 01d6 0CBB     		cbnz	r4, .L61
 395:USBFS_msc_cust.c **** 	{
 396:USBFS_msc_cust.c **** 		USBFS_LoadInEP(MSC_EP_IN, USBFS_MSC_InEPBuffer, currPacketSize);
 680              		.loc 1 396 0
 681 01d8 124D     		ldr	r5, .L66
 682 01da 95F83C20 		ldrb	r2, [r5, #60]	@ zero_extendqisi2
 683 01de 1349     		ldr	r1, .L66+8
 684 01e0 0120     		movs	r0, #1
 685 01e2 FFF7FEFF 		bl	USBFS_LoadInEP
 686              	.LVL62:
 397:USBFS_msc_cust.c **** 		USBFS_MSC_CSW.dCSWDataResidue -= currPacketSize;
 687              		.loc 1 397 0
 688 01e6 95F83C20 		ldrb	r2, [r5, #60]	@ zero_extendqisi2
 689 01ea EB68     		ldr	r3, [r5, #12]
 690 01ec 9B1A     		subs	r3, r3, r2
 691 01ee EB60     		str	r3, [r5, #12]
 398:USBFS_msc_cust.c **** 		if(USBFS_MSC_CBW.CBWCB[0] == USBFS_MSC_SCSI_READ10)
 692              		.loc 1 398 0
 693 01f0 95F82330 		ldrb	r3, [r5, #35]	@ zero_extendqisi2
 694 01f4 282B     		cmp	r3, #40
 695 01f6 11D1     		bne	.L61
 399:USBFS_msc_cust.c **** 		{
 400:USBFS_msc_cust.c **** 			USBFS_MSC_StartLocation += currPacketSize;
 696              		.loc 1 400 0
 697 01f8 2B6C     		ldr	r3, [r5, #64]
 698 01fa 1344     		add	r3, r3, r2
 699 01fc 2B64     		str	r3, [r5, #64]
 401:USBFS_msc_cust.c **** 			USBFS_MSC_BytesToTransfer -= currPacketSize;
 700              		.loc 1 401 0
 701 01fe AB6B     		ldr	r3, [r5, #56]
 702 0200 9A1A     		subs	r2, r3, r2
 703 0202 AA63     		str	r2, [r5, #56]
 402:USBFS_msc_cust.c **** 			
 403:USBFS_msc_cust.c **** 			if(USBFS_MSC_BytesToTransfer == ZERO)
 704              		.loc 1 403 0
 705 0204 12B9     		cbnz	r2, .L62
 404:USBFS_msc_cust.c **** 			{
 405:USBFS_msc_cust.c **** 				currState = MSC_STATUS_TRANSPORT;
 706              		.loc 1 405 0
 707 0206 0522     		movs	r2, #5
 708 0208 85F84420 		strb	r2, [r5, #68]
 709              	.L62:
 406:USBFS_msc_cust.c **** 			}
 407:USBFS_msc_cust.c **** 			
ARM GAS  C:\Users\linar\AppData\Local\Temp\cckt45FP.s 			page 21


 408:USBFS_msc_cust.c **** 			if(currState != MSC_DATA_IN)
 710              		.loc 1 408 0
 711 020c 054B     		ldr	r3, .L66
 712 020e 93F84430 		ldrb	r3, [r3, #68]	@ zero_extendqisi2
 713 0212 032B     		cmp	r3, #3
 714 0214 02D0     		beq	.L61
 409:USBFS_msc_cust.c **** 			{
 410:USBFS_msc_cust.c **** 				USBFS_MSC_CSW.bCSWStatus = USBFS_MSC_CSW_PASS;
 715              		.loc 1 410 0
 716 0216 0022     		movs	r2, #0
 717 0218 024B     		ldr	r3, .L66
 718 021a 1A74     		strb	r2, [r3, #16]
 719              	.L61:
 411:USBFS_msc_cust.c **** 			}
 412:USBFS_msc_cust.c **** 		}
 413:USBFS_msc_cust.c **** 	}
 414:USBFS_msc_cust.c **** 	
 415:USBFS_msc_cust.c **** 	return(commandStatus);
 416:USBFS_msc_cust.c **** }
 720              		.loc 1 416 0
 721 021c 2046     		mov	r0, r4
 722 021e 0DF5017D 		add	sp, sp, #516
 723              		.cfi_def_cfa_offset 12
 724              		@ sp needed
 725 0222 30BD     		pop	{r4, r5, pc}
 726              	.LVL63:
 727              	.L67:
 728              		.align	2
 729              	.L66:
 730 0224 00000000 		.word	.LANCHOR0
 731 0228 C0270900 		.word	600000
 732 022c 00000000 		.word	USBFS_MSC_InEPBuffer
 733              		.cfi_endproc
 734              	.LFE69:
 735              		.size	HandleSCSIInRequests, .-HandleSCSIInRequests
 736              		.section	.text.HandleSCSIOutRequests,"ax",%progbits
 737              		.align	2
 738              		.global	HandleSCSIOutRequests
 739              		.thumb
 740              		.thumb_func
 741              		.type	HandleSCSIOutRequests, %function
 742              	HandleSCSIOutRequests:
 743              	.LFB70:
 417:USBFS_msc_cust.c **** 
 418:USBFS_msc_cust.c **** /*******************************************************************************
 419:USBFS_msc_cust.c **** * Function Name: HandleSCSIOutRequests()
 420:USBFS_msc_cust.c **** ********************************************************************************
 421:USBFS_msc_cust.c **** * Summary:
 422:USBFS_msc_cust.c **** *  Interprets the SCSI OUT commands and implements a non-blocking statemachine 
 423:USBFS_msc_cust.c **** *  to service the requests.
 424:USBFS_msc_cust.c **** *
 425:USBFS_msc_cust.c **** * Parameters:
 426:USBFS_msc_cust.c **** *  None.
 427:USBFS_msc_cust.c **** *
 428:USBFS_msc_cust.c **** * Return:
 429:USBFS_msc_cust.c **** *  cystatus: PASS: If the routines handling SCSI is successful.
 430:USBFS_msc_cust.c **** *
ARM GAS  C:\Users\linar\AppData\Local\Temp\cckt45FP.s 			page 22


 431:USBFS_msc_cust.c **** *******************************************************************************/
 432:USBFS_msc_cust.c **** cystatus HandleSCSIOutRequests(void)
 433:USBFS_msc_cust.c **** {
 744              		.loc 1 433 0
 745              		.cfi_startproc
 746              		@ args = 0, pretend = 0, frame = 0
 747              		@ frame_needed = 0, uses_anonymous_args = 0
 748 0000 10B5     		push	{r4, lr}
 749              		.cfi_def_cfa_offset 8
 750              		.cfi_offset 4, -8
 751              		.cfi_offset 14, -4
 752              	.LVL64:
 434:USBFS_msc_cust.c **** 	cystatus commandStatus = CYRET_INVALID_STATE;
 435:USBFS_msc_cust.c **** 	static uint8 currPacketSize = ZERO;
 436:USBFS_msc_cust.c **** 	static uint8 toggle = ZERO;
 437:USBFS_msc_cust.c **** 	uint8 index = ZERO;
 438:USBFS_msc_cust.c **** 	
 439:USBFS_msc_cust.c **** 	uint8 parseStatus = TRUE;
 440:USBFS_msc_cust.c **** 	
 441:USBFS_msc_cust.c **** 	switch(USBFS_MSC_CBW.CBWCB[0])
 753              		.loc 1 441 0
 754 0002 3E4B     		ldr	r3, .L79
 755 0004 93F82330 		ldrb	r3, [r3, #35]	@ zero_extendqisi2
 756 0008 2A2B     		cmp	r3, #42
 757 000a 02D0     		beq	.L70
 758 000c 2F2B     		cmp	r3, #47
 759 000e 3CD0     		beq	.L71
 760 0010 71E0     		b	.L69
 761              	.L70:
 442:USBFS_msc_cust.c **** 	{
 443:USBFS_msc_cust.c **** 		case USBFS_MSC_SCSI_WRITE10:
 444:USBFS_msc_cust.c **** 			if(toggle == ZERO)
 762              		.loc 1 444 0
 763 0012 3A4B     		ldr	r3, .L79
 764 0014 93F84530 		ldrb	r3, [r3, #69]	@ zero_extendqisi2
 765 0018 C3B9     		cbnz	r3, .L72
 445:USBFS_msc_cust.c **** 			{
 446:USBFS_msc_cust.c **** 				currPacketSize = USBFS_GetEPCount(MSC_EP_OUT);
 766              		.loc 1 446 0
 767 001a 0220     		movs	r0, #2
 768 001c FFF7FEFF 		bl	USBFS_GetEPCount
 769              	.LVL65:
 770 0020 C2B2     		uxtb	r2, r0
 771 0022 364C     		ldr	r4, .L79
 772 0024 84F84620 		strb	r2, [r4, #70]
 447:USBFS_msc_cust.c **** 				USBFS_MSC_ReadOutEP(MSC_EP_OUT, USBFS_MSC_OutEPBuffer, currPacketSize);
 773              		.loc 1 447 0
 774 0028 3549     		ldr	r1, .L79+4
 775 002a 0220     		movs	r0, #2
 776 002c FFF7FEFF 		bl	USBFS_MSC_ReadOutEP
 777              	.LVL66:
 448:USBFS_msc_cust.c **** 				
 449:USBFS_msc_cust.c **** 			  	if ((USBFS_MSC_StartLocation + currPacketSize) > USBFS_MSC_TOTAL_MEM_SIZE) 
 778              		.loc 1 449 0
 779 0030 226C     		ldr	r2, [r4, #64]
 780 0032 94F84630 		ldrb	r3, [r4, #70]	@ zero_extendqisi2
 781 0036 1344     		add	r3, r3, r2
ARM GAS  C:\Users\linar\AppData\Local\Temp\cckt45FP.s 			page 23


 782 0038 3249     		ldr	r1, .L79+8
 783 003a 8B42     		cmp	r3, r1
 784 003c 06D9     		bls	.L72
 450:USBFS_msc_cust.c **** 				{
 451:USBFS_msc_cust.c **** 			    	currPacketSize = USBFS_MSC_TOTAL_MEM_SIZE - USBFS_MSC_StartLocation;
 785              		.loc 1 451 0
 786 003e C2F1C002 		rsb	r2, r2, #192
 787 0042 84F84620 		strb	r2, [r4, #70]
 452:USBFS_msc_cust.c **** 			    	currState = MSC_STATUS_TRANSPORT;
 788              		.loc 1 452 0
 789 0046 0522     		movs	r2, #5
 790 0048 84F84420 		strb	r2, [r4, #68]
 791              	.L72:
 453:USBFS_msc_cust.c **** 			  	}
 454:USBFS_msc_cust.c ****                 
 455:USBFS_msc_cust.c **** 				/* Check if the incoming data is already being parsed. */
 456:USBFS_msc_cust.c **** //                if (beginDataParsing == FALSE)
 457:USBFS_msc_cust.c **** //				{
 458:USBFS_msc_cust.c **** //					for(index = ZERO; index < currPacketSize; index++)
 459:USBFS_msc_cust.c **** //					{
 460:USBFS_msc_cust.c **** //						if(USBFS_MSC_OutEPBuffer[index] == ':')
 461:USBFS_msc_cust.c **** //						{
 462:USBFS_msc_cust.c **** //							/* A valide hex file will always begin with ':'. Wait for 
 463:USBFS_msc_cust.c **** //							 * the stream to hit this condition to begin parsing. */
 464:USBFS_msc_cust.c **** //							beginDataParsing = TRUE;
 465:USBFS_msc_cust.c **** //                            
 466:USBFS_msc_cust.c **** //                            //STATUS_LED_BREATHING_ON;
 467:USBFS_msc_cust.c **** //                            
 468:USBFS_msc_cust.c **** //							break;
 469:USBFS_msc_cust.c **** //						}
 470:USBFS_msc_cust.c **** //					}
 471:USBFS_msc_cust.c **** //				}
 472:USBFS_msc_cust.c **** 			}
 473:USBFS_msc_cust.c **** 			
 474:USBFS_msc_cust.c **** //            if (beginDataParsing == TRUE)
 475:USBFS_msc_cust.c **** //			{
 476:USBFS_msc_cust.c **** //				/* Parse incoming data stream if ':' is detected.
 477:USBFS_msc_cust.c **** //				 * Additional checks implemented inside this routine. */
 478:USBFS_msc_cust.c **** //				//parseStatus = ParseIncomingData(currPacketSize);
 479:USBFS_msc_cust.c **** //				toggle = ~ZERO;
 480:USBFS_msc_cust.c **** //			}
 481:USBFS_msc_cust.c **** 				
 482:USBFS_msc_cust.c **** 			if (parseStatus == TRUE)
 483:USBFS_msc_cust.c **** 			{
 484:USBFS_msc_cust.c **** 				/* Rearm the EP if parsing of the current packet is complete and data is written to the F-RAM. 
 485:USBFS_msc_cust.c **** 				USBFS_EnableOutEP(MSC_EP_OUT);
 792              		.loc 1 485 0
 793 004c 0220     		movs	r0, #2
 794 004e FFF7FEFF 		bl	USBFS_EnableOutEP
 795              	.LVL67:
 486:USBFS_msc_cust.c **** 				
 487:USBFS_msc_cust.c **** 				USBFS_MSC_StartLocation += currPacketSize;
 796              		.loc 1 487 0
 797 0052 2A4B     		ldr	r3, .L79
 798 0054 93F84600 		ldrb	r0, [r3, #70]	@ zero_extendqisi2
 799 0058 1A6C     		ldr	r2, [r3, #64]
 800 005a 0244     		add	r2, r2, r0
ARM GAS  C:\Users\linar\AppData\Local\Temp\cckt45FP.s 			page 24


 801 005c 1A64     		str	r2, [r3, #64]
 488:USBFS_msc_cust.c **** 			  	USBFS_MSC_BytesToTransfer -= currPacketSize;
 802              		.loc 1 488 0
 803 005e 9A6B     		ldr	r2, [r3, #56]
 804 0060 121A     		subs	r2, r2, r0
 805 0062 9A63     		str	r2, [r3, #56]
 489:USBFS_msc_cust.c **** 
 490:USBFS_msc_cust.c **** 			  	USBFS_MSC_CSW.dCSWDataResidue -= currPacketSize;
 806              		.loc 1 490 0
 807 0064 D968     		ldr	r1, [r3, #12]
 808 0066 091A     		subs	r1, r1, r0
 809 0068 D960     		str	r1, [r3, #12]
 491:USBFS_msc_cust.c **** 
 492:USBFS_msc_cust.c **** 				/* Retrun the status to host if all the packets sent by host has been parsed. */
 493:USBFS_msc_cust.c **** 			  	if ((USBFS_MSC_BytesToTransfer == 0) || (currState == MSC_STATUS_TRANSPORT)) 
 810              		.loc 1 493 0
 811 006a 1AB1     		cbz	r2, .L73
 812              		.loc 1 493 0 is_stmt 0 discriminator 1
 813 006c 93F84430 		ldrb	r3, [r3, #68]	@ zero_extendqisi2
 814 0070 052B     		cmp	r3, #5
 815 0072 05D1     		bne	.L74
 816              	.L73:
 494:USBFS_msc_cust.c **** 				{
 495:USBFS_msc_cust.c **** 			    	USBFS_MSC_CSW.bCSWStatus = USBFS_MSC_CSW_PASS;
 817              		.loc 1 495 0 is_stmt 1
 818 0074 214B     		ldr	r3, .L79
 819 0076 0022     		movs	r2, #0
 820 0078 1A74     		strb	r2, [r3, #16]
 496:USBFS_msc_cust.c **** 			    	currState = MSC_STATUS_TRANSPORT;
 821              		.loc 1 496 0
 822 007a 0522     		movs	r2, #5
 823 007c 83F84420 		strb	r2, [r3, #68]
 824              	.L74:
 497:USBFS_msc_cust.c **** 				}
 498:USBFS_msc_cust.c **** 				toggle = ZERO;
 825              		.loc 1 498 0
 826 0080 0022     		movs	r2, #0
 827 0082 1E4B     		ldr	r3, .L79
 828 0084 83F84520 		strb	r2, [r3, #69]
 829 0088 35E0     		b	.L69
 830              	.L71:
 499:USBFS_msc_cust.c **** 			}
 500:USBFS_msc_cust.c **** 			break;
 501:USBFS_msc_cust.c **** 			
 502:USBFS_msc_cust.c **** 		case USBFS_MSC_SCSI_VERIFY10:
 503:USBFS_msc_cust.c **** 			if(USBFS_GetEPAckState(MSC_EP_OUT) != FALSE)
 831              		.loc 1 503 0
 832 008a 0220     		movs	r0, #2
 833 008c FFF7FEFF 		bl	USBFS_GetEPAckState
 834              	.LVL68:
 835 0090 70B3     		cbz	r0, .L75
 504:USBFS_msc_cust.c **** 			{
 505:USBFS_msc_cust.c **** 				currPacketSize = USBFS_GetEPCount(MSC_EP_OUT);
 836              		.loc 1 505 0
 837 0092 0220     		movs	r0, #2
 838 0094 FFF7FEFF 		bl	USBFS_GetEPCount
 839              	.LVL69:
ARM GAS  C:\Users\linar\AppData\Local\Temp\cckt45FP.s 			page 25


 840 0098 C2B2     		uxtb	r2, r0
 841 009a 184C     		ldr	r4, .L79
 842 009c 84F84620 		strb	r2, [r4, #70]
 506:USBFS_msc_cust.c **** 				USBFS_MSC_ReadOutEP(MSC_EP_OUT, USBFS_MSC_OutEPBuffer, currPacketSize);
 843              		.loc 1 506 0
 844 00a0 1749     		ldr	r1, .L79+4
 845 00a2 0220     		movs	r0, #2
 846 00a4 FFF7FEFF 		bl	USBFS_MSC_ReadOutEP
 847              	.LVL70:
 507:USBFS_msc_cust.c **** 			  	
 508:USBFS_msc_cust.c **** 				if ((USBFS_MSC_StartLocation + currPacketSize) > USBFS_MSC_TOTAL_MEM_SIZE) 
 848              		.loc 1 508 0
 849 00a8 226C     		ldr	r2, [r4, #64]
 850 00aa 94F84630 		ldrb	r3, [r4, #70]	@ zero_extendqisi2
 851 00ae 1344     		add	r3, r3, r2
 852 00b0 1449     		ldr	r1, .L79+8
 853 00b2 8B42     		cmp	r3, r1
 854 00b4 06D9     		bls	.L76
 509:USBFS_msc_cust.c **** 				{
 510:USBFS_msc_cust.c **** 			    	currPacketSize = USBFS_MSC_TOTAL_MEM_SIZE - USBFS_MSC_StartLocation;
 855              		.loc 1 510 0
 856 00b6 C2F1C001 		rsb	r1, r2, #192
 857 00ba 84F84610 		strb	r1, [r4, #70]
 511:USBFS_msc_cust.c **** 			    	currState = MSC_STATUS_TRANSPORT;
 858              		.loc 1 511 0
 859 00be 0521     		movs	r1, #5
 860 00c0 84F84410 		strb	r1, [r4, #68]
 861              	.L76:
 512:USBFS_msc_cust.c **** 			  	}
 513:USBFS_msc_cust.c **** 				
 514:USBFS_msc_cust.c **** 				/* Write the memory verification routine here. None implemented as of now. */		
 515:USBFS_msc_cust.c **** 				
 516:USBFS_msc_cust.c **** 				USBFS_MSC_StartLocation += currPacketSize;
 862              		.loc 1 516 0
 863 00c4 0D4B     		ldr	r3, .L79
 864 00c6 93F84600 		ldrb	r0, [r3, #70]	@ zero_extendqisi2
 865 00ca 0244     		add	r2, r2, r0
 866 00cc 1A64     		str	r2, [r3, #64]
 517:USBFS_msc_cust.c **** 			  	USBFS_MSC_BytesToTransfer -= currPacketSize;
 867              		.loc 1 517 0
 868 00ce 9A6B     		ldr	r2, [r3, #56]
 869 00d0 121A     		subs	r2, r2, r0
 870 00d2 9A63     		str	r2, [r3, #56]
 518:USBFS_msc_cust.c **** 
 519:USBFS_msc_cust.c **** 			  	USBFS_MSC_CSW.dCSWDataResidue -= currPacketSize;
 871              		.loc 1 519 0
 872 00d4 D968     		ldr	r1, [r3, #12]
 873 00d6 091A     		subs	r1, r1, r0
 874 00d8 D960     		str	r1, [r3, #12]
 520:USBFS_msc_cust.c **** 
 521:USBFS_msc_cust.c **** 			  	if ((USBFS_MSC_BytesToTransfer == ZERO) || (currState == MSC_STATUS_TRANSPORT)) 
 875              		.loc 1 521 0
 876 00da 1AB1     		cbz	r2, .L77
 877              		.loc 1 521 0 is_stmt 0 discriminator 1
 878 00dc 93F84430 		ldrb	r3, [r3, #68]	@ zero_extendqisi2
 879 00e0 052B     		cmp	r3, #5
 880 00e2 05D1     		bne	.L75
ARM GAS  C:\Users\linar\AppData\Local\Temp\cckt45FP.s 			page 26


 881              	.L77:
 522:USBFS_msc_cust.c **** 				{
 523:USBFS_msc_cust.c **** 			    	USBFS_MSC_CSW.bCSWStatus = USBFS_MSC_CSW_PASS;
 882              		.loc 1 523 0 is_stmt 1
 883 00e4 054B     		ldr	r3, .L79
 884 00e6 0022     		movs	r2, #0
 885 00e8 1A74     		strb	r2, [r3, #16]
 524:USBFS_msc_cust.c **** 			    	currState = MSC_STATUS_TRANSPORT;
 886              		.loc 1 524 0
 887 00ea 0522     		movs	r2, #5
 888 00ec 83F84420 		strb	r2, [r3, #68]
 889              	.L75:
 525:USBFS_msc_cust.c **** 				}
 526:USBFS_msc_cust.c **** 			}
 527:USBFS_msc_cust.c **** 			
 528:USBFS_msc_cust.c **** 			USBFS_EnableOutEP(MSC_EP_OUT);
 890              		.loc 1 528 0
 891 00f0 0220     		movs	r0, #2
 892 00f2 FFF7FEFF 		bl	USBFS_EnableOutEP
 893              	.LVL71:
 894              	.L69:
 529:USBFS_msc_cust.c **** 			break;
 530:USBFS_msc_cust.c **** 	}
 531:USBFS_msc_cust.c **** 	
 532:USBFS_msc_cust.c **** 	return(commandStatus);
 533:USBFS_msc_cust.c **** }
 895              		.loc 1 533 0
 896 00f6 1120     		movs	r0, #17
 897 00f8 10BD     		pop	{r4, pc}
 898              	.L80:
 899 00fa 00BF     		.align	2
 900              	.L79:
 901 00fc 00000000 		.word	.LANCHOR0
 902 0100 00000000 		.word	USBFS_MSC_OutEPBuffer
 903 0104 C0270900 		.word	600000
 904              		.cfi_endproc
 905              	.LFE70:
 906              		.size	HandleSCSIOutRequests, .-HandleSCSIOutRequests
 907              		.section	.text.HandleSCSINoDataRequests,"ax",%progbits
 908              		.align	2
 909              		.global	HandleSCSINoDataRequests
 910              		.thumb
 911              		.thumb_func
 912              		.type	HandleSCSINoDataRequests, %function
 913              	HandleSCSINoDataRequests:
 914              	.LFB71:
 534:USBFS_msc_cust.c **** 
 535:USBFS_msc_cust.c **** /*******************************************************************************
 536:USBFS_msc_cust.c **** * Function Name: HandleSCSINoDataRequests()
 537:USBFS_msc_cust.c **** ********************************************************************************
 538:USBFS_msc_cust.c **** * Summary:
 539:USBFS_msc_cust.c **** *  Interprets the SCSI No Data commands and implements a non-blocking statemachine 
 540:USBFS_msc_cust.c **** *  to service the requests.
 541:USBFS_msc_cust.c **** *
 542:USBFS_msc_cust.c **** * Parameters:
 543:USBFS_msc_cust.c **** *  None.
 544:USBFS_msc_cust.c **** *
ARM GAS  C:\Users\linar\AppData\Local\Temp\cckt45FP.s 			page 27


 545:USBFS_msc_cust.c **** * Return:
 546:USBFS_msc_cust.c **** *  cystatus: PASS: If the routines handling SCSI is successful.
 547:USBFS_msc_cust.c **** *
 548:USBFS_msc_cust.c **** *******************************************************************************/
 549:USBFS_msc_cust.c **** cystatus HandleSCSINoDataRequests(void)
 550:USBFS_msc_cust.c **** {
 915              		.loc 1 550 0
 916              		.cfi_startproc
 917              		@ args = 0, pretend = 0, frame = 0
 918              		@ frame_needed = 0, uses_anonymous_args = 0
 919 0000 10B5     		push	{r4, lr}
 920              		.cfi_def_cfa_offset 8
 921              		.cfi_offset 4, -8
 922              		.cfi_offset 14, -4
 923              	.LVL72:
 551:USBFS_msc_cust.c **** 	cystatus commandStatus = CYRET_INVALID_STATE;
 552:USBFS_msc_cust.c **** 	
 553:USBFS_msc_cust.c **** 	switch(USBFS_MSC_CBW.CBWCB[0])
 924              		.loc 1 553 0
 925 0002 0E4B     		ldr	r3, .L89
 926 0004 93F82330 		ldrb	r3, [r3, #35]	@ zero_extendqisi2
 927 0008 1B2B     		cmp	r3, #27
 928 000a 0BD0     		beq	.L83
 929 000c 1E2B     		cmp	r3, #30
 930 000e 03D0     		beq	.L84
 931 0010 8BB9     		cbnz	r3, .L87
 554:USBFS_msc_cust.c **** 	{
 555:USBFS_msc_cust.c **** 		case USBFS_MSC_SCSI_TEST_UNIT_READY:
 556:USBFS_msc_cust.c **** 			commandStatus = USBFS_MSC_SCSI_TestUnitReady();
 932              		.loc 1 556 0
 933 0012 FFF7FEFF 		bl	USBFS_MSC_SCSI_TestUnitReady
 934              	.LVL73:
 557:USBFS_msc_cust.c **** 			break;
 935              		.loc 1 557 0
 936 0016 10BD     		pop	{r4, pc}
 937              	.LVL74:
 938              	.L84:
 558:USBFS_msc_cust.c **** 			
 559:USBFS_msc_cust.c **** 		case USBFS_MSC_SCSI_MEDIA_REMOVAL:
 560:USBFS_msc_cust.c **** 			commandStatus = USBFS_MSC_SCSI_PreventMediaRemoval(USBFS_MSC_CBW.CBWCB[4]);
 939              		.loc 1 560 0
 940 0018 084B     		ldr	r3, .L89
 941 001a 93F82700 		ldrb	r0, [r3, #39]	@ zero_extendqisi2
 942 001e FFF7FEFF 		bl	USBFS_MSC_SCSI_PreventMediaRemoval
 943              	.LVL75:
 561:USBFS_msc_cust.c **** 			break;
 944              		.loc 1 561 0
 945 0022 10BD     		pop	{r4, pc}
 946              	.LVL76:
 947              	.L83:
 562:USBFS_msc_cust.c **** 			
 563:USBFS_msc_cust.c **** 		case USBFS_MSC_SCSI_START_STOP_UNIT:
 564:USBFS_msc_cust.c **** 			commandStatus = USBFS_MSC_SCSI_StartStopUnit(USBFS_MSC_CBW.CBWCB[4]);
 948              		.loc 1 564 0
 949 0024 054C     		ldr	r4, .L89
 950 0026 94F82700 		ldrb	r0, [r4, #39]	@ zero_extendqisi2
 951 002a FFF7FEFF 		bl	USBFS_MSC_SCSI_StartStopUnit
ARM GAS  C:\Users\linar\AppData\Local\Temp\cckt45FP.s 			page 28


 952              	.LVL77:
 565:USBFS_msc_cust.c **** 			currState = MSC_STATUS_TRANSPORT;
 953              		.loc 1 565 0
 954 002e 0523     		movs	r3, #5
 955 0030 84F84430 		strb	r3, [r4, #68]
 566:USBFS_msc_cust.c **** 			break;
 956              		.loc 1 566 0
 957 0034 10BD     		pop	{r4, pc}
 958              	.LVL78:
 959              	.L87:
 551:USBFS_msc_cust.c **** 	
 960              		.loc 1 551 0
 961 0036 1120     		movs	r0, #17
 962              	.LVL79:
 567:USBFS_msc_cust.c **** 			
 568:USBFS_msc_cust.c **** 		default:
 569:USBFS_msc_cust.c **** 			break;
 570:USBFS_msc_cust.c **** 	}
 571:USBFS_msc_cust.c **** 	
 572:USBFS_msc_cust.c **** 	return(commandStatus);
 573:USBFS_msc_cust.c **** }
 963              		.loc 1 573 0
 964 0038 10BD     		pop	{r4, pc}
 965              	.L90:
 966 003a 00BF     		.align	2
 967              	.L89:
 968 003c 00000000 		.word	.LANCHOR0
 969              		.cfi_endproc
 970              	.LFE71:
 971              		.size	HandleSCSINoDataRequests, .-HandleSCSINoDataRequests
 972              		.section	.text.USBFS_HandleMassStorageInRequests,"ax",%progbits
 973              		.align	2
 974              		.global	USBFS_HandleMassStorageInRequests
 975              		.thumb
 976              		.thumb_func
 977              		.type	USBFS_HandleMassStorageInRequests, %function
 978              	USBFS_HandleMassStorageInRequests:
 979              	.LFB72:
 574:USBFS_msc_cust.c **** 
 575:USBFS_msc_cust.c **** /*******************************************************************************
 576:USBFS_msc_cust.c **** * Function Name: USBFS_HandleMassStorageInRequests()
 577:USBFS_msc_cust.c **** ********************************************************************************
 578:USBFS_msc_cust.c **** * Summary:
 579:USBFS_msc_cust.c **** *  Handles the IN part of the common state machine implemented together with 
 580:USBFS_msc_cust.c **** *  USBFS_HandleMassStorageOutRequests() function.
 581:USBFS_msc_cust.c **** *
 582:USBFS_msc_cust.c **** * Parameters:
 583:USBFS_msc_cust.c **** *  None.
 584:USBFS_msc_cust.c **** *
 585:USBFS_msc_cust.c **** * Return:
 586:USBFS_msc_cust.c **** *  None.
 587:USBFS_msc_cust.c **** *
 588:USBFS_msc_cust.c **** *******************************************************************************/
 589:USBFS_msc_cust.c **** void USBFS_HandleMassStorageInRequests(void)
 590:USBFS_msc_cust.c **** {
 980              		.loc 1 590 0
 981              		.cfi_startproc
ARM GAS  C:\Users\linar\AppData\Local\Temp\cckt45FP.s 			page 29


 982              		@ args = 0, pretend = 0, frame = 0
 983              		@ frame_needed = 0, uses_anonymous_args = 0
 984 0000 10B5     		push	{r4, lr}
 985              		.cfi_def_cfa_offset 8
 986              		.cfi_offset 4, -8
 987              		.cfi_offset 14, -4
 988              	.LVL80:
 591:USBFS_msc_cust.c **** 	cystatus requestStatus = CYRET_INVALID_STATE;
 592:USBFS_msc_cust.c **** 	switch(currState)
 989              		.loc 1 592 0
 990 0002 144B     		ldr	r3, .L99
 991 0004 93F84430 		ldrb	r3, [r3, #68]	@ zero_extendqisi2
 992 0008 033B     		subs	r3, r3, #3
 993 000a 032B     		cmp	r3, #3
 994 000c 21D8     		bhi	.L91
 995 000e DFE803F0 		tbb	[pc, r3]
 996              	.L94:
 997 0012 02       		.byte	(.L93-.L94)/2
 998 0013 07       		.byte	(.L95-.L94)/2
 999 0014 17       		.byte	(.L96-.L94)/2
 1000 0015 0F       		.byte	(.L97-.L94)/2
 1001              		.p2align 1
 1002              	.L93:
 593:USBFS_msc_cust.c **** 	{
 594:USBFS_msc_cust.c **** 		case MSC_DATA_IN:
 595:USBFS_msc_cust.c **** 			/* Interpret command. This is a SCSI command. */
 596:USBFS_msc_cust.c **** 			requestStatus = HandleSCSIInRequests();  
 1003              		.loc 1 596 0
 1004 0016 FFF7FEFF 		bl	HandleSCSIInRequests
 1005              	.LVL81:
 597:USBFS_msc_cust.c **** 			USBFS_MSC_CSW.bCSWStatus = requestStatus;
 1006              		.loc 1 597 0
 1007 001a 0E4B     		ldr	r3, .L99
 1008 001c 1874     		strb	r0, [r3, #16]
 598:USBFS_msc_cust.c **** 			break;
 1009              		.loc 1 598 0
 1010 001e 10BD     		pop	{r4, pc}
 1011              	.LVL82:
 1012              	.L95:
 599:USBFS_msc_cust.c **** 			
 600:USBFS_msc_cust.c **** 		case MSC_NO_DATA:
 601:USBFS_msc_cust.c **** 			/* Interpret command. This is a SCSI command. */
 602:USBFS_msc_cust.c **** 			requestStatus = HandleSCSINoDataRequests();  
 1013              		.loc 1 602 0
 1014 0020 FFF7FEFF 		bl	HandleSCSINoDataRequests
 1015              	.LVL83:
 603:USBFS_msc_cust.c **** 			USBFS_MSC_CSW.bCSWStatus = requestStatus;
 1016              		.loc 1 603 0
 1017 0024 0B4B     		ldr	r3, .L99
 1018 0026 1874     		strb	r0, [r3, #16]
 604:USBFS_msc_cust.c **** 			currState = MSC_STATUS_TRANSPORT;
 1019              		.loc 1 604 0
 1020 0028 0522     		movs	r2, #5
 1021 002a 83F84420 		strb	r2, [r3, #68]
 605:USBFS_msc_cust.c **** 			break;
 1022              		.loc 1 605 0
 1023 002e 10BD     		pop	{r4, pc}
ARM GAS  C:\Users\linar\AppData\Local\Temp\cckt45FP.s 			page 30


 1024              	.LVL84:
 1025              	.L97:
 606:USBFS_msc_cust.c **** 	
 607:USBFS_msc_cust.c **** 		case MSC_STALL_IN_ENDPOINT:
 608:USBFS_msc_cust.c **** 			CY_SET_REG8(MSC_EP_IN, USBFS_MODE_STALL_DATA_EP);
 1026              		.loc 1 608 0
 1027 0030 8022     		movs	r2, #128
 1028 0032 0123     		movs	r3, #1
 1029 0034 1A70     		strb	r2, [r3]
 609:USBFS_msc_cust.c **** 			currState = MSC_READY_STATE;
 1030              		.loc 1 609 0
 1031 0036 0022     		movs	r2, #0
 1032 0038 064B     		ldr	r3, .L99
 1033 003a 83F84420 		strb	r2, [r3, #68]
 610:USBFS_msc_cust.c **** 			break;
 1034              		.loc 1 610 0
 1035 003e 10BD     		pop	{r4, pc}
 1036              	.L96:
 611:USBFS_msc_cust.c **** 			
 612:USBFS_msc_cust.c **** 		case MSC_STATUS_TRANSPORT:
 613:USBFS_msc_cust.c **** 			/* Send the status using CSW to the host. */
 614:USBFS_msc_cust.c **** 			USBFS_LoadInEP(MSC_EP_IN, (uint8 *)&USBFS_MSC_CSW, MSC_CSW_SIZE);
 1037              		.loc 1 614 0
 1038 0040 044C     		ldr	r4, .L99
 1039 0042 0D22     		movs	r2, #13
 1040 0044 211D     		adds	r1, r4, #4
 1041 0046 0120     		movs	r0, #1
 1042 0048 FFF7FEFF 		bl	USBFS_LoadInEP
 1043              	.LVL85:
 615:USBFS_msc_cust.c **** 			currState = MSC_READY_STATE;
 1044              		.loc 1 615 0
 1045 004c 0023     		movs	r3, #0
 1046 004e 84F84430 		strb	r3, [r4, #68]
 1047              	.L91:
 1048 0052 10BD     		pop	{r4, pc}
 1049              	.L100:
 1050              		.align	2
 1051              	.L99:
 1052 0054 00000000 		.word	.LANCHOR0
 1053              		.cfi_endproc
 1054              	.LFE72:
 1055              		.size	USBFS_HandleMassStorageInRequests, .-USBFS_HandleMassStorageInRequests
 1056              		.section	.text.USBFS_HandleMassStorageOutRequests,"ax",%progbits
 1057              		.align	2
 1058              		.global	USBFS_HandleMassStorageOutRequests
 1059              		.thumb
 1060              		.thumb_func
 1061              		.type	USBFS_HandleMassStorageOutRequests, %function
 1062              	USBFS_HandleMassStorageOutRequests:
 1063              	.LFB73:
 616:USBFS_msc_cust.c **** 			break;
 617:USBFS_msc_cust.c **** 	}
 618:USBFS_msc_cust.c **** }
 619:USBFS_msc_cust.c **** 
 620:USBFS_msc_cust.c **** /*******************************************************************************
 621:USBFS_msc_cust.c **** * Function Name: USBFS_HandleMassStorageOutRequests()
 622:USBFS_msc_cust.c **** ********************************************************************************
ARM GAS  C:\Users\linar\AppData\Local\Temp\cckt45FP.s 			page 31


 623:USBFS_msc_cust.c **** * Summary:
 624:USBFS_msc_cust.c **** *  Handles the OUT part of the common state machine implemented together with 
 625:USBFS_msc_cust.c **** *  USBFS_HandleMassStorageInRequests() function.
 626:USBFS_msc_cust.c **** *
 627:USBFS_msc_cust.c **** * Parameters:
 628:USBFS_msc_cust.c **** *  None.
 629:USBFS_msc_cust.c **** *
 630:USBFS_msc_cust.c **** * Return:
 631:USBFS_msc_cust.c **** *  None.
 632:USBFS_msc_cust.c **** *
 633:USBFS_msc_cust.c **** *******************************************************************************/
 634:USBFS_msc_cust.c **** void USBFS_HandleMassStorageOutRequests(void)
 635:USBFS_msc_cust.c **** {
 1064              		.loc 1 635 0
 1065              		.cfi_startproc
 1066              		@ args = 0, pretend = 0, frame = 0
 1067              		@ frame_needed = 0, uses_anonymous_args = 0
 1068 0000 08B5     		push	{r3, lr}
 1069              		.cfi_def_cfa_offset 8
 1070              		.cfi_offset 3, -8
 1071              		.cfi_offset 14, -4
 1072              	.LVL86:
 636:USBFS_msc_cust.c **** 	uint32 tempVar = ZERO;
 637:USBFS_msc_cust.c **** 	uint8 epCount = ZERO;
 638:USBFS_msc_cust.c **** 	
 639:USBFS_msc_cust.c **** 	switch(currState)
 1073              		.loc 1 639 0
 1074 0002 5A4B     		ldr	r3, .L116
 1075 0004 93F84430 		ldrb	r3, [r3, #68]	@ zero_extendqisi2
 1076 0008 082B     		cmp	r3, #8
 1077 000a 00F2AD80 		bhi	.L101
 1078 000e DFE803F0 		tbb	[pc, r3]
 1079              	.L104:
 1080 0012 05       		.byte	(.L103-.L104)/2
 1081 0013 20       		.byte	(.L105-.L104)/2
 1082 0014 93       		.byte	(.L106-.L104)/2
 1083 0015 AB       		.byte	(.L101-.L104)/2
 1084 0016 AB       		.byte	(.L101-.L104)/2
 1085 0017 AB       		.byte	(.L101-.L104)/2
 1086 0018 AB       		.byte	(.L101-.L104)/2
 1087 0019 96       		.byte	(.L107-.L104)/2
 1088 001a 9E       		.byte	(.L108-.L104)/2
 1089 001b 00       		.p2align 1
 1090              	.L103:
 640:USBFS_msc_cust.c **** 	{
 641:USBFS_msc_cust.c **** 		case MSC_READY_STATE: 
 642:USBFS_msc_cust.c **** 			/* Number of bytes received now should be exactly 31 as per spec. */
 643:USBFS_msc_cust.c **** 			if(USBFS_GetEPAckState(MSC_EP_OUT) != FALSE)
 1091              		.loc 1 643 0
 1092 001c 0220     		movs	r0, #2
 1093 001e FFF7FEFF 		bl	USBFS_GetEPAckState
 1094              	.LVL87:
 1095 0022 0028     		cmp	r0, #0
 1096 0024 00F0A080 		beq	.L101
 644:USBFS_msc_cust.c **** 			{
 645:USBFS_msc_cust.c **** 				epCount = USBFS_GetEPCount(MSC_EP_OUT);	
 1097              		.loc 1 645 0
ARM GAS  C:\Users\linar\AppData\Local\Temp\cckt45FP.s 			page 32


 1098 0028 0220     		movs	r0, #2
 1099 002a FFF7FEFF 		bl	USBFS_GetEPCount
 1100              	.LVL88:
 1101 002e C3B2     		uxtb	r3, r0
 1102              	.LVL89:
 646:USBFS_msc_cust.c **** 				if(epCount == MSC_CBW_SIZE)
 1103              		.loc 1 646 0
 1104 0030 1F2B     		cmp	r3, #31
 1105 0032 09D1     		bne	.L109
 647:USBFS_msc_cust.c **** 				{
 648:USBFS_msc_cust.c **** 					USBFS_MSC_ReadOutEP(MSC_EP_OUT, USBFS_MSC_OutEPBuffer, epCount);
 1106              		.loc 1 648 0
 1107 0034 1A46     		mov	r2, r3
 1108 0036 4E49     		ldr	r1, .L116+4
 1109 0038 0220     		movs	r0, #2
 1110 003a FFF7FEFF 		bl	USBFS_MSC_ReadOutEP
 1111              	.LVL90:
 649:USBFS_msc_cust.c **** 					currState = MSC_COMMAND_TRANSPORT;
 1112              		.loc 1 649 0
 1113 003e 0122     		movs	r2, #1
 1114 0040 4A4B     		ldr	r3, .L116
 1115 0042 83F84420 		strb	r2, [r3, #68]
 1116 0046 08BD     		pop	{r3, pc}
 1117              	.LVL91:
 1118              	.L109:
 650:USBFS_msc_cust.c **** 				}
 651:USBFS_msc_cust.c **** 				else
 652:USBFS_msc_cust.c **** 				{
 653:USBFS_msc_cust.c **** 					currState = MSC_STALL_OUT_ENDPOINT;
 1119              		.loc 1 653 0
 1120 0048 0722     		movs	r2, #7
 1121 004a 484B     		ldr	r3, .L116
 1122              	.LVL92:
 1123 004c 83F84420 		strb	r2, [r3, #68]
 1124 0050 08BD     		pop	{r3, pc}
 1125              	.LVL93:
 1126              	.L105:
 654:USBFS_msc_cust.c **** 				}
 655:USBFS_msc_cust.c **** 			}
 656:USBFS_msc_cust.c **** 			break;
 657:USBFS_msc_cust.c **** 			
 658:USBFS_msc_cust.c **** 		case MSC_COMMAND_TRANSPORT: 
 659:USBFS_msc_cust.c **** 			/* Validate CBW and check the direction of data transfer expected by host. */
 660:USBFS_msc_cust.c **** 			if(USBFS_IsCommandBlockWrapperValid() == CYRET_SUCCESS)
 1127              		.loc 1 660 0
 1128 0052 FFF7FEFF 		bl	USBFS_IsCommandBlockWrapperValid
 1129              	.LVL94:
 1130 0056 0028     		cmp	r0, #0
 1131 0058 69D1     		bne	.L110
 661:USBFS_msc_cust.c **** 			{
 662:USBFS_msc_cust.c **** 				if(USBFS_MSC_CBW.dCBWDataTransferLength != ZERO)
 1132              		.loc 1 662 0
 1133 005a 444B     		ldr	r3, .L116
 1134 005c DA69     		ldr	r2, [r3, #28]
 1135 005e 002A     		cmp	r2, #0
 1136 0060 59D0     		beq	.L111
 663:USBFS_msc_cust.c **** 				{
ARM GAS  C:\Users\linar\AppData\Local\Temp\cckt45FP.s 			page 33


 664:USBFS_msc_cust.c **** 					/* Bulk In Transfer. */
 665:USBFS_msc_cust.c **** 					if((USBFS_MSC_CBW.bmCBWFlags & MSC_CBWFLAG_DIRECTION_MASK) == USBFS_DIR_IN)
 1137              		.loc 1 665 0
 1138 0062 93F92030 		ldrsb	r3, [r3, #32]
 1139 0066 002B     		cmp	r3, #0
 1140 0068 29DA     		bge	.L112
 666:USBFS_msc_cust.c **** 					{
 667:USBFS_msc_cust.c **** 						currState = MSC_DATA_IN;
 1141              		.loc 1 667 0
 1142 006a 404B     		ldr	r3, .L116
 1143 006c 0321     		movs	r1, #3
 1144 006e 83F84410 		strb	r1, [r3, #68]
 668:USBFS_msc_cust.c **** 						
 669:USBFS_msc_cust.c **** 						if((USBFS_MSC_CBW.CBWCB[0]) == USBFS_MSC_SCSI_READ10)
 1145              		.loc 1 669 0
 1146 0072 93F82330 		ldrb	r3, [r3, #35]	@ zero_extendqisi2
 1147 0076 282B     		cmp	r3, #40
 1148 0078 51D1     		bne	.L113
 670:USBFS_msc_cust.c **** 						{
 671:USBFS_msc_cust.c **** 							tempVar = ((USBFS_MSC_CBW.CBWCB[2] << 24) | (USBFS_MSC_CBW.CBWCB[3] << 16) | (USBFS_MSC_CBW.
 1149              		.loc 1 671 0
 1150 007a 3C49     		ldr	r1, .L116
 1151 007c 91F82500 		ldrb	r0, [r1, #37]	@ zero_extendqisi2
 1152 0080 91F82630 		ldrb	r3, [r1, #38]	@ zero_extendqisi2
 1153 0084 1B04     		lsls	r3, r3, #16
 1154 0086 43EA0063 		orr	r3, r3, r0, lsl #24
 1155 008a 91F82700 		ldrb	r0, [r1, #39]	@ zero_extendqisi2
 1156 008e 43EA0023 		orr	r3, r3, r0, lsl #8
 1157 0092 91F82800 		ldrb	r0, [r1, #40]	@ zero_extendqisi2
 1158 0096 0343     		orrs	r3, r3, r0
 1159              	.LVL95:
 672:USBFS_msc_cust.c **** 							USBFS_MSC_StartLocation = tempVar * USBFS_MSC_BLOCKSIZE; 
 1160              		.loc 1 672 0
 1161 0098 5B02     		lsls	r3, r3, #9
 1162              	.LVL96:
 1163 009a 0B64     		str	r3, [r1, #64]
 673:USBFS_msc_cust.c **** 							
 674:USBFS_msc_cust.c **** 							tempVar = ((USBFS_MSC_CBW.CBWCB[7] << 8) | USBFS_MSC_CBW.CBWCB[8]);
 1164              		.loc 1 674 0
 1165 009c 91F82A00 		ldrb	r0, [r1, #42]	@ zero_extendqisi2
 1166              	.LVL97:
 1167 00a0 91F82B30 		ldrb	r3, [r1, #43]	@ zero_extendqisi2
 1168 00a4 43EA0023 		orr	r3, r3, r0, lsl #8
 1169              	.LVL98:
 675:USBFS_msc_cust.c **** 							USBFS_MSC_BytesToTransfer = tempVar * USBFS_MSC_BLOCKSIZE;
 1170              		.loc 1 675 0
 1171 00a8 5B02     		lsls	r3, r3, #9
 1172              	.LVL99:
 1173 00aa 8B63     		str	r3, [r1, #56]
 676:USBFS_msc_cust.c **** 							
 677:USBFS_msc_cust.c **** 							if(USBFS_MSC_CBW.dCBWDataTransferLength != USBFS_MSC_BytesToTransfer)
 1174              		.loc 1 677 0
 1175 00ac 9A42     		cmp	r2, r3
 1176 00ae 36D0     		beq	.L113
 678:USBFS_msc_cust.c **** 							{
 679:USBFS_msc_cust.c **** 								USBFS_MSC_CSW.bCSWStatus = USBFS_MSC_CSW_PHASE_ERROR;
 1177              		.loc 1 679 0
ARM GAS  C:\Users\linar\AppData\Local\Temp\cckt45FP.s 			page 34


 1178 00b0 0B46     		mov	r3, r1
 1179 00b2 0221     		movs	r1, #2
 1180              	.LVL100:
 1181 00b4 1974     		strb	r1, [r3, #16]
 680:USBFS_msc_cust.c **** 								currState = MSC_STALL_OUT_ENDPOINT;
 1182              		.loc 1 680 0
 1183 00b6 0721     		movs	r1, #7
 1184 00b8 83F84410 		strb	r1, [r3, #68]
 1185 00bc 2FE0     		b	.L113
 1186              	.LVL101:
 1187              	.L112:
 681:USBFS_msc_cust.c **** 							}
 682:USBFS_msc_cust.c **** 						}						
 683:USBFS_msc_cust.c **** 					}
 684:USBFS_msc_cust.c **** 					else
 685:USBFS_msc_cust.c **** 					{
 686:USBFS_msc_cust.c **** 						/* Bulk Out Transfer. */
 687:USBFS_msc_cust.c **** 						currState = MSC_DATA_OUT;
 1188              		.loc 1 687 0
 1189 00be 2B4B     		ldr	r3, .L116
 1190 00c0 0221     		movs	r1, #2
 1191 00c2 83F84410 		strb	r1, [r3, #68]
 688:USBFS_msc_cust.c **** 						
 689:USBFS_msc_cust.c **** 						if(((USBFS_MSC_CBW.CBWCB[0]) == USBFS_MSC_SCSI_WRITE10) || ((USBFS_MSC_CBW.CBWCB[0]) == USBFS
 1192              		.loc 1 689 0
 1193 00c6 93F82330 		ldrb	r3, [r3, #35]	@ zero_extendqisi2
 1194 00ca 2A2B     		cmp	r3, #42
 1195 00cc 01D0     		beq	.L114
 1196              		.loc 1 689 0 is_stmt 0 discriminator 1
 1197 00ce 2F2B     		cmp	r3, #47
 1198 00d0 25D1     		bne	.L113
 1199              	.L114:
 690:USBFS_msc_cust.c **** 						{
 691:USBFS_msc_cust.c **** 							tempVar = ((USBFS_MSC_CBW.CBWCB[2] << 24) | (USBFS_MSC_CBW.CBWCB[3] << 16) | (USBFS_MSC_CBW.
 1200              		.loc 1 691 0 is_stmt 1
 1201 00d2 2649     		ldr	r1, .L116
 1202 00d4 91F82500 		ldrb	r0, [r1, #37]	@ zero_extendqisi2
 1203 00d8 91F82630 		ldrb	r3, [r1, #38]	@ zero_extendqisi2
 1204 00dc 1B04     		lsls	r3, r3, #16
 1205 00de 43EA0063 		orr	r3, r3, r0, lsl #24
 1206 00e2 91F82700 		ldrb	r0, [r1, #39]	@ zero_extendqisi2
 1207 00e6 43EA0023 		orr	r3, r3, r0, lsl #8
 1208 00ea 91F82800 		ldrb	r0, [r1, #40]	@ zero_extendqisi2
 1209 00ee 0343     		orrs	r3, r3, r0
 1210              	.LVL102:
 692:USBFS_msc_cust.c **** 							USBFS_MSC_StartLocation = tempVar * USBFS_MSC_BLOCKSIZE;
 1211              		.loc 1 692 0
 1212 00f0 5B02     		lsls	r3, r3, #9
 1213              	.LVL103:
 1214 00f2 0B64     		str	r3, [r1, #64]
 693:USBFS_msc_cust.c **** 							
 694:USBFS_msc_cust.c ****                            // if (USBFS_MSC_StartLocation == 0x0A00) //ResetProgrammingParameters()
 695:USBFS_msc_cust.c ****                             
 696:USBFS_msc_cust.c **** 							tempVar = ((USBFS_MSC_CBW.CBWCB[7] << 8) | USBFS_MSC_CBW.CBWCB[8]);
 1215              		.loc 1 696 0
 1216 00f4 91F82A00 		ldrb	r0, [r1, #42]	@ zero_extendqisi2
 1217              	.LVL104:
ARM GAS  C:\Users\linar\AppData\Local\Temp\cckt45FP.s 			page 35


 1218 00f8 91F82B30 		ldrb	r3, [r1, #43]	@ zero_extendqisi2
 1219 00fc 43EA0023 		orr	r3, r3, r0, lsl #8
 1220              	.LVL105:
 697:USBFS_msc_cust.c **** 							USBFS_MSC_BytesToTransfer = tempVar * USBFS_MSC_BLOCKSIZE;
 1221              		.loc 1 697 0
 1222 0100 5B02     		lsls	r3, r3, #9
 1223              	.LVL106:
 1224 0102 8B63     		str	r3, [r1, #56]
 698:USBFS_msc_cust.c **** 							
 699:USBFS_msc_cust.c **** 							if(USBFS_MSC_CBW.dCBWDataTransferLength != USBFS_MSC_BytesToTransfer)
 1225              		.loc 1 699 0
 1226 0104 9A42     		cmp	r2, r3
 1227 0106 0AD0     		beq	.L113
 700:USBFS_msc_cust.c **** 							{
 701:USBFS_msc_cust.c **** 								USBFS_MSC_CSW.bCSWStatus = USBFS_MSC_CSW_PHASE_ERROR;
 1228              		.loc 1 701 0
 1229 0108 0B46     		mov	r3, r1
 1230 010a 0221     		movs	r1, #2
 1231              	.LVL107:
 1232 010c 1974     		strb	r1, [r3, #16]
 702:USBFS_msc_cust.c **** 								currState = MSC_STALL_OUT_ENDPOINT;
 1233              		.loc 1 702 0
 1234 010e 0721     		movs	r1, #7
 1235 0110 83F84410 		strb	r1, [r3, #68]
 1236 0114 03E0     		b	.L113
 1237              	.LVL108:
 1238              	.L111:
 703:USBFS_msc_cust.c **** 							}
 704:USBFS_msc_cust.c **** 						}
 705:USBFS_msc_cust.c **** 					}
 706:USBFS_msc_cust.c **** 				}
 707:USBFS_msc_cust.c **** 				else
 708:USBFS_msc_cust.c **** 				{
 709:USBFS_msc_cust.c **** 					/* No data transfer expected by the host. */
 710:USBFS_msc_cust.c **** 					currState = MSC_NO_DATA;
 1239              		.loc 1 710 0
 1240 0116 0421     		movs	r1, #4
 1241 0118 144B     		ldr	r3, .L116
 1242 011a 83F84410 		strb	r1, [r3, #68]
 1243              	.LVL109:
 1244              	.L113:
 711:USBFS_msc_cust.c **** 				}
 712:USBFS_msc_cust.c **** 				
 713:USBFS_msc_cust.c **** 				/* Echo the tag. */
 714:USBFS_msc_cust.c **** 				USBFS_MSC_CSW.dCSWTag = USBFS_MSC_CBW.dCBWTag; 
 1245              		.loc 1 714 0
 1246 011e 134B     		ldr	r3, .L116
 1247 0120 9969     		ldr	r1, [r3, #24]
 1248 0122 9960     		str	r1, [r3, #8]
 715:USBFS_msc_cust.c **** 				
 716:USBFS_msc_cust.c **** 				/* Inform the residue. */
 717:USBFS_msc_cust.c **** 				USBFS_MSC_CSW.dCSWDataResidue = USBFS_MSC_CBW.dCBWDataTransferLength;
 1249              		.loc 1 717 0
 1250 0124 DA60     		str	r2, [r3, #12]
 718:USBFS_msc_cust.c **** 				
 719:USBFS_msc_cust.c **** 				/* Re-arm the endpoint for next OUT transfer. */
 720:USBFS_msc_cust.c **** 				USBFS_EnableOutEP(MSC_EP_OUT);
ARM GAS  C:\Users\linar\AppData\Local\Temp\cckt45FP.s 			page 36


 1251              		.loc 1 720 0
 1252 0126 0220     		movs	r0, #2
 1253 0128 FFF7FEFF 		bl	USBFS_EnableOutEP
 1254              	.LVL110:
 1255 012c 08BD     		pop	{r3, pc}
 1256              	.LVL111:
 1257              	.L110:
 721:USBFS_msc_cust.c **** 			}
 722:USBFS_msc_cust.c **** 			else
 723:USBFS_msc_cust.c **** 			{
 724:USBFS_msc_cust.c **** 				/* Invalid CBW. Wait for reset recovery. */
 725:USBFS_msc_cust.c **** 				currState = MSC_WAIT_FOR_RESET; 
 1258              		.loc 1 725 0
 1259 012e 0822     		movs	r2, #8
 1260 0130 0E4B     		ldr	r3, .L116
 1261 0132 83F84420 		strb	r2, [r3, #68]
 1262 0136 08BD     		pop	{r3, pc}
 1263              	.L106:
 726:USBFS_msc_cust.c **** 			}
 727:USBFS_msc_cust.c **** 			break;
 728:USBFS_msc_cust.c **** 
 729:USBFS_msc_cust.c **** 		case MSC_DATA_OUT:
 730:USBFS_msc_cust.c **** 			/* Interpret command. This is a SCSI command. */
 731:USBFS_msc_cust.c **** 			HandleSCSIOutRequests();  
 1264              		.loc 1 731 0
 1265 0138 FFF7FEFF 		bl	HandleSCSIOutRequests
 1266              	.LVL112:
 732:USBFS_msc_cust.c **** 			break;
 1267              		.loc 1 732 0
 1268 013c 08BD     		pop	{r3, pc}
 1269              	.L107:
 733:USBFS_msc_cust.c **** 
 734:USBFS_msc_cust.c **** 		case MSC_STALL_OUT_ENDPOINT:
 735:USBFS_msc_cust.c **** 			CY_SET_REG8(MSC_EP_OUT, USBFS_MODE_STALL_DATA_EP);
 1270              		.loc 1 735 0
 1271 013e 8022     		movs	r2, #128
 1272 0140 0223     		movs	r3, #2
 1273 0142 1A70     		strb	r2, [r3]
 736:USBFS_msc_cust.c **** 			currState = MSC_READY_STATE;
 1274              		.loc 1 736 0
 1275 0144 0022     		movs	r2, #0
 1276 0146 094B     		ldr	r3, .L116
 1277 0148 83F84420 		strb	r2, [r3, #68]
 737:USBFS_msc_cust.c **** 			break;
 1278              		.loc 1 737 0
 1279 014c 08BD     		pop	{r3, pc}
 1280              	.L108:
 738:USBFS_msc_cust.c **** 			
 739:USBFS_msc_cust.c **** 		case MSC_WAIT_FOR_RESET:
 740:USBFS_msc_cust.c **** 			USBFS_MSC_StallInEP();
 1281              		.loc 1 740 0
 1282 014e FFF7FEFF 		bl	USBFS_MSC_StallInEP
 1283              	.LVL113:
 741:USBFS_msc_cust.c **** 			USBFS_MSC_StallOutEP();
 1284              		.loc 1 741 0
 1285 0152 FFF7FEFF 		bl	USBFS_MSC_StallOutEP
 1286              	.LVL114:
ARM GAS  C:\Users\linar\AppData\Local\Temp\cckt45FP.s 			page 37


 742:USBFS_msc_cust.c **** 			if(resetRecovery == TRUE)
 1287              		.loc 1 742 0
 1288 0156 054B     		ldr	r3, .L116
 1289 0158 1B78     		ldrb	r3, [r3]	@ zero_extendqisi2
 1290 015a 012B     		cmp	r3, #1
 1291 015c 04D1     		bne	.L101
 743:USBFS_msc_cust.c **** 			{
 744:USBFS_msc_cust.c **** 				resetRecovery = FALSE;
 1292              		.loc 1 744 0
 1293 015e 034B     		ldr	r3, .L116
 1294 0160 0022     		movs	r2, #0
 1295 0162 1A70     		strb	r2, [r3]
 745:USBFS_msc_cust.c **** 				currState = MSC_READY_STATE;
 1296              		.loc 1 745 0
 1297 0164 83F84420 		strb	r2, [r3, #68]
 1298              	.L101:
 1299 0168 08BD     		pop	{r3, pc}
 1300              	.L117:
 1301 016a 00BF     		.align	2
 1302              	.L116:
 1303 016c 00000000 		.word	.LANCHOR0
 1304 0170 00000000 		.word	USBFS_MSC_OutEPBuffer
 1305              		.cfi_endproc
 1306              	.LFE73:
 1307              		.size	USBFS_HandleMassStorageOutRequests, .-USBFS_HandleMassStorageOutRequests
 1308              		.comm	USBFS_MSC_OutEPBuffer,64,4
 1309              		.comm	USBFS_MSC_InEPBuffer,64,4
 1310              		.bss
 1311              		.align	2
 1312              		.set	.LANCHOR0,. + 0
 1313              		.type	resetRecovery, %object
 1314              		.size	resetRecovery, 1
 1315              	resetRecovery:
 1316 0000 00       		.space	1
 1317 0001 000000   		.space	3
 1318              		.type	USBFS_MSC_CSW, %object
 1319              		.size	USBFS_MSC_CSW, 16
 1320              	USBFS_MSC_CSW:
 1321 0004 00000000 		.space	16
 1321      00000000 
 1321      00000000 
 1321      00000000 
 1322              		.type	USBFS_MSC_CBW, %object
 1323              		.size	USBFS_MSC_CBW, 32
 1324              	USBFS_MSC_CBW:
 1325 0014 00000000 		.space	32
 1325      00000000 
 1325      00000000 
 1325      00000000 
 1325      00000000 
 1326              		.type	toggle.6173, %object
 1327              		.size	toggle.6173, 1
 1328              	toggle.6173:
 1329 0034 00       		.space	1
 1330 0035 000000   		.space	3
 1331              		.type	USBFS_MSC_BytesToTransfer, %object
 1332              		.size	USBFS_MSC_BytesToTransfer, 4
ARM GAS  C:\Users\linar\AppData\Local\Temp\cckt45FP.s 			page 38


 1333              	USBFS_MSC_BytesToTransfer:
 1334 0038 00000000 		.space	4
 1335              		.type	currPacketSize.6172, %object
 1336              		.size	currPacketSize.6172, 1
 1337              	currPacketSize.6172:
 1338 003c 00       		.space	1
 1339 003d 000000   		.space	3
 1340              		.type	USBFS_MSC_StartLocation, %object
 1341              		.size	USBFS_MSC_StartLocation, 4
 1342              	USBFS_MSC_StartLocation:
 1343 0040 00000000 		.space	4
 1344              		.type	currState, %object
 1345              		.size	currState, 1
 1346              	currState:
 1347 0044 00       		.space	1
 1348              		.type	toggle.6203, %object
 1349              		.size	toggle.6203, 1
 1350              	toggle.6203:
 1351 0045 00       		.space	1
 1352              		.type	currPacketSize.6202, %object
 1353              		.size	currPacketSize.6202, 1
 1354              	currPacketSize.6202:
 1355 0046 00       		.space	1
 1356              		.text
 1357              	.Letext0:
 1358              		.file 2 "c:\\program files (x86)\\cypress\\psoc creator\\4.4\\psoc creator\\import\\gnu\\arm\\5.4.
 1359              		.file 3 "c:\\program files (x86)\\cypress\\psoc creator\\4.4\\psoc creator\\import\\gnu\\arm\\5.4.
 1360              		.file 4 "Generated_Source\\PSoC5/cytypes.h"
 1361              		.file 5 "Generated_Source\\PSoC5/USBFS.h"
 1362              		.file 6 "USBFS_msc_cust.h"
 1363              		.file 7 "Generated_Source\\PSoC5/USBFS_pvt.h"
 1364              		.file 8 "Generated_Source\\PSoC5/core_cm3.h"
 1365              		.file 9 "diskio.h"
 1366              		.file 10 "USBFS_SCSI_operations.h"